ARM GAS  /var/folders/8x/_y6g3dfs0698dfd49y4vcg_w0000gn/T//ccCJXnue.s 			page 1


   1              		.cpu cortex-m3
   2              		.arch armv7-m
   3              		.fpu softvfp
   4              		.eabi_attribute 20, 1
   5              		.eabi_attribute 21, 1
   6              		.eabi_attribute 23, 3
   7              		.eabi_attribute 24, 1
   8              		.eabi_attribute 25, 1
   9              		.eabi_attribute 26, 1
  10              		.eabi_attribute 30, 1
  11              		.eabi_attribute 34, 1
  12              		.eabi_attribute 18, 4
  13              		.file	"can.c"
  14              		.text
  15              	.Ltext0:
  16              		.cfi_sections	.debug_frame
  17              		.file 1 "Core/Src/can.c"
  18              		.section	.text.MX_CAN_Init,"ax",%progbits
  19              		.align	1
  20              		.global	MX_CAN_Init
  21              		.syntax unified
  22              		.thumb
  23              		.thumb_func
  25              	MX_CAN_Init:
  26              	.LFB65:
   1:Core/Src/can.c **** /* USER CODE BEGIN Header */
   2:Core/Src/can.c **** /**
   3:Core/Src/can.c ****   ******************************************************************************
   4:Core/Src/can.c ****   * @file    can.c
   5:Core/Src/can.c ****   * @brief   This file provides code for the configuration
   6:Core/Src/can.c ****   *          of the CAN instances.
   7:Core/Src/can.c ****   ******************************************************************************
   8:Core/Src/can.c ****   * @attention
   9:Core/Src/can.c ****   *
  10:Core/Src/can.c ****   * Copyright (c) 2025 STMicroelectronics.
  11:Core/Src/can.c ****   * All rights reserved.
  12:Core/Src/can.c ****   *
  13:Core/Src/can.c ****   * This software is licensed under terms that can be found in the LICENSE file
  14:Core/Src/can.c ****   * in the root directory of this software component.
  15:Core/Src/can.c ****   * If no LICENSE file comes with this software, it is provided AS-IS.
  16:Core/Src/can.c ****   *
  17:Core/Src/can.c ****   ******************************************************************************
  18:Core/Src/can.c ****   */
  19:Core/Src/can.c **** /* USER CODE END Header */
  20:Core/Src/can.c **** /* Includes ------------------------------------------------------------------*/
  21:Core/Src/can.c **** #include "can.h"
  22:Core/Src/can.c **** 
  23:Core/Src/can.c **** /* USER CODE BEGIN 0 */
  24:Core/Src/can.c **** 
  25:Core/Src/can.c **** /* USER CODE END 0 */
  26:Core/Src/can.c **** 
  27:Core/Src/can.c **** CAN_HandleTypeDef hcan;
  28:Core/Src/can.c **** 
  29:Core/Src/can.c **** /* CAN init function */
  30:Core/Src/can.c **** void MX_CAN_Init(void)
  31:Core/Src/can.c **** {
  27              		.loc 1 31 1 view -0
ARM GAS  /var/folders/8x/_y6g3dfs0698dfd49y4vcg_w0000gn/T//ccCJXnue.s 			page 2


  28              		.cfi_startproc
  29              		@ args = 0, pretend = 0, frame = 0
  30              		@ frame_needed = 0, uses_anonymous_args = 0
  31 0000 08B5     		push	{r3, lr}
  32              	.LCFI0:
  33              		.cfi_def_cfa_offset 8
  34              		.cfi_offset 3, -8
  35              		.cfi_offset 14, -4
  32:Core/Src/can.c **** 
  33:Core/Src/can.c ****   /* USER CODE BEGIN CAN_Init 0 */
  34:Core/Src/can.c **** 
  35:Core/Src/can.c ****   /* USER CODE END CAN_Init 0 */
  36:Core/Src/can.c **** 
  37:Core/Src/can.c ****   /* USER CODE BEGIN CAN_Init 1 */
  38:Core/Src/can.c **** 
  39:Core/Src/can.c ****   /* USER CODE END CAN_Init 1 */
  40:Core/Src/can.c ****   hcan.Instance = CAN1;
  36              		.loc 1 40 3 view .LVU1
  37              		.loc 1 40 17 is_stmt 0 view .LVU2
  38 0002 1048     		ldr	r0, .L5
  39 0004 104B     		ldr	r3, .L5+4
  40 0006 0360     		str	r3, [r0]
  41:Core/Src/can.c ****   hcan.Init.Prescaler = 8;
  41              		.loc 1 41 3 is_stmt 1 view .LVU3
  42              		.loc 1 41 23 is_stmt 0 view .LVU4
  43 0008 0823     		movs	r3, #8
  44 000a 4360     		str	r3, [r0, #4]
  42:Core/Src/can.c ****   hcan.Init.Mode = CAN_MODE_LOOPBACK;
  45              		.loc 1 42 3 is_stmt 1 view .LVU5
  46              		.loc 1 42 18 is_stmt 0 view .LVU6
  47 000c 4FF08043 		mov	r3, #1073741824
  48 0010 8360     		str	r3, [r0, #8]
  43:Core/Src/can.c ****   hcan.Init.SyncJumpWidth = CAN_SJW_2TQ;
  49              		.loc 1 43 3 is_stmt 1 view .LVU7
  50              		.loc 1 43 27 is_stmt 0 view .LVU8
  51 0012 4FF08073 		mov	r3, #16777216
  52 0016 C360     		str	r3, [r0, #12]
  44:Core/Src/can.c ****   hcan.Init.TimeSeg1 = CAN_BS1_4TQ;
  53              		.loc 1 44 3 is_stmt 1 view .LVU9
  54              		.loc 1 44 22 is_stmt 0 view .LVU10
  55 0018 4FF44033 		mov	r3, #196608
  56 001c 0361     		str	r3, [r0, #16]
  45:Core/Src/can.c ****   hcan.Init.TimeSeg2 = CAN_BS2_4TQ;
  57              		.loc 1 45 3 is_stmt 1 view .LVU11
  58              		.loc 1 45 22 is_stmt 0 view .LVU12
  59 001e 4FF44013 		mov	r3, #3145728
  60 0022 4361     		str	r3, [r0, #20]
  46:Core/Src/can.c ****   hcan.Init.TimeTriggeredMode = DISABLE;
  61              		.loc 1 46 3 is_stmt 1 view .LVU13
  62              		.loc 1 46 31 is_stmt 0 view .LVU14
  63 0024 0023     		movs	r3, #0
  64 0026 0376     		strb	r3, [r0, #24]
  47:Core/Src/can.c ****   hcan.Init.AutoBusOff = DISABLE;
  65              		.loc 1 47 3 is_stmt 1 view .LVU15
  66              		.loc 1 47 24 is_stmt 0 view .LVU16
  67 0028 4376     		strb	r3, [r0, #25]
  48:Core/Src/can.c ****   hcan.Init.AutoWakeUp = DISABLE;
ARM GAS  /var/folders/8x/_y6g3dfs0698dfd49y4vcg_w0000gn/T//ccCJXnue.s 			page 3


  68              		.loc 1 48 3 is_stmt 1 view .LVU17
  69              		.loc 1 48 24 is_stmt 0 view .LVU18
  70 002a 8376     		strb	r3, [r0, #26]
  49:Core/Src/can.c ****   hcan.Init.AutoRetransmission = ENABLE;
  71              		.loc 1 49 3 is_stmt 1 view .LVU19
  72              		.loc 1 49 32 is_stmt 0 view .LVU20
  73 002c 0122     		movs	r2, #1
  74 002e C276     		strb	r2, [r0, #27]
  50:Core/Src/can.c ****   hcan.Init.ReceiveFifoLocked = DISABLE;
  75              		.loc 1 50 3 is_stmt 1 view .LVU21
  76              		.loc 1 50 31 is_stmt 0 view .LVU22
  77 0030 0377     		strb	r3, [r0, #28]
  51:Core/Src/can.c ****   hcan.Init.TransmitFifoPriority = DISABLE;
  78              		.loc 1 51 3 is_stmt 1 view .LVU23
  79              		.loc 1 51 34 is_stmt 0 view .LVU24
  80 0032 4377     		strb	r3, [r0, #29]
  52:Core/Src/can.c ****   if (HAL_CAN_Init(&hcan) != HAL_OK)
  81              		.loc 1 52 3 is_stmt 1 view .LVU25
  82              		.loc 1 52 7 is_stmt 0 view .LVU26
  83 0034 FFF7FEFF 		bl	HAL_CAN_Init
  84              	.LVL0:
  85              		.loc 1 52 6 discriminator 1 view .LVU27
  86 0038 00B9     		cbnz	r0, .L4
  87              	.L1:
  53:Core/Src/can.c ****   {
  54:Core/Src/can.c ****     Error_Handler();
  55:Core/Src/can.c ****   }
  56:Core/Src/can.c ****   /* USER CODE BEGIN CAN_Init 2 */
  57:Core/Src/can.c **** 
  58:Core/Src/can.c ****   /* USER CODE END CAN_Init 2 */
  59:Core/Src/can.c **** 
  60:Core/Src/can.c **** }
  88              		.loc 1 60 1 view .LVU28
  89 003a 08BD     		pop	{r3, pc}
  90              	.L4:
  54:Core/Src/can.c ****   }
  91              		.loc 1 54 5 is_stmt 1 view .LVU29
  92 003c FFF7FEFF 		bl	Error_Handler
  93              	.LVL1:
  94              		.loc 1 60 1 is_stmt 0 view .LVU30
  95 0040 FBE7     		b	.L1
  96              	.L6:
  97 0042 00BF     		.align	2
  98              	.L5:
  99 0044 00000000 		.word	hcan
 100 0048 00640040 		.word	1073767424
 101              		.cfi_endproc
 102              	.LFE65:
 104              		.section	.text.HAL_CAN_MspInit,"ax",%progbits
 105              		.align	1
 106              		.global	HAL_CAN_MspInit
 107              		.syntax unified
 108              		.thumb
 109              		.thumb_func
 111              	HAL_CAN_MspInit:
 112              	.LVL2:
 113              	.LFB66:
ARM GAS  /var/folders/8x/_y6g3dfs0698dfd49y4vcg_w0000gn/T//ccCJXnue.s 			page 4


  61:Core/Src/can.c **** 
  62:Core/Src/can.c **** void HAL_CAN_MspInit(CAN_HandleTypeDef* canHandle)
  63:Core/Src/can.c **** {
 114              		.loc 1 63 1 is_stmt 1 view -0
 115              		.cfi_startproc
 116              		@ args = 0, pretend = 0, frame = 24
 117              		@ frame_needed = 0, uses_anonymous_args = 0
 118              		.loc 1 63 1 is_stmt 0 view .LVU32
 119 0000 10B5     		push	{r4, lr}
 120              	.LCFI1:
 121              		.cfi_def_cfa_offset 8
 122              		.cfi_offset 4, -8
 123              		.cfi_offset 14, -4
 124 0002 86B0     		sub	sp, sp, #24
 125              	.LCFI2:
 126              		.cfi_def_cfa_offset 32
  64:Core/Src/can.c **** 
  65:Core/Src/can.c ****   GPIO_InitTypeDef GPIO_InitStruct = {0};
 127              		.loc 1 65 3 is_stmt 1 view .LVU33
 128              		.loc 1 65 20 is_stmt 0 view .LVU34
 129 0004 0023     		movs	r3, #0
 130 0006 0293     		str	r3, [sp, #8]
 131 0008 0393     		str	r3, [sp, #12]
 132 000a 0493     		str	r3, [sp, #16]
 133 000c 0593     		str	r3, [sp, #20]
  66:Core/Src/can.c ****   if(canHandle->Instance==CAN1)
 134              		.loc 1 66 3 is_stmt 1 view .LVU35
 135              		.loc 1 66 15 is_stmt 0 view .LVU36
 136 000e 0268     		ldr	r2, [r0]
 137              		.loc 1 66 5 view .LVU37
 138 0010 1B4B     		ldr	r3, .L11
 139 0012 9A42     		cmp	r2, r3
 140 0014 01D0     		beq	.L10
 141              	.LVL3:
 142              	.L7:
  67:Core/Src/can.c ****   {
  68:Core/Src/can.c ****   /* USER CODE BEGIN CAN1_MspInit 0 */
  69:Core/Src/can.c **** 
  70:Core/Src/can.c ****   /* USER CODE END CAN1_MspInit 0 */
  71:Core/Src/can.c ****     /* CAN1 clock enable */
  72:Core/Src/can.c ****     __HAL_RCC_CAN1_CLK_ENABLE();
  73:Core/Src/can.c **** 
  74:Core/Src/can.c ****     __HAL_RCC_GPIOB_CLK_ENABLE();
  75:Core/Src/can.c ****     /**CAN GPIO Configuration
  76:Core/Src/can.c ****     PB8     ------> CAN_RX
  77:Core/Src/can.c ****     PB9     ------> CAN_TX
  78:Core/Src/can.c ****     */
  79:Core/Src/can.c ****     GPIO_InitStruct.Pin = GPIO_PIN_8;
  80:Core/Src/can.c ****     GPIO_InitStruct.Mode = GPIO_MODE_INPUT;
  81:Core/Src/can.c ****     GPIO_InitStruct.Pull = GPIO_PULLUP;
  82:Core/Src/can.c ****     HAL_GPIO_Init(GPIOB, &GPIO_InitStruct);
  83:Core/Src/can.c **** 
  84:Core/Src/can.c ****     GPIO_InitStruct.Pin = GPIO_PIN_9;
  85:Core/Src/can.c ****     GPIO_InitStruct.Mode = GPIO_MODE_AF_PP;
  86:Core/Src/can.c ****     GPIO_InitStruct.Speed = GPIO_SPEED_FREQ_HIGH;
  87:Core/Src/can.c ****     HAL_GPIO_Init(GPIOB, &GPIO_InitStruct);
  88:Core/Src/can.c **** 
ARM GAS  /var/folders/8x/_y6g3dfs0698dfd49y4vcg_w0000gn/T//ccCJXnue.s 			page 5


  89:Core/Src/can.c ****     __HAL_AFIO_REMAP_CAN1_2();
  90:Core/Src/can.c **** 
  91:Core/Src/can.c ****   /* USER CODE BEGIN CAN1_MspInit 1 */
  92:Core/Src/can.c **** 
  93:Core/Src/can.c ****   /* USER CODE END CAN1_MspInit 1 */
  94:Core/Src/can.c ****   }
  95:Core/Src/can.c **** }
 143              		.loc 1 95 1 view .LVU38
 144 0016 06B0     		add	sp, sp, #24
 145              	.LCFI3:
 146              		.cfi_remember_state
 147              		.cfi_def_cfa_offset 8
 148              		@ sp needed
 149 0018 10BD     		pop	{r4, pc}
 150              	.LVL4:
 151              	.L10:
 152              	.LCFI4:
 153              		.cfi_restore_state
  72:Core/Src/can.c **** 
 154              		.loc 1 72 5 is_stmt 1 view .LVU39
 155              	.LBB2:
  72:Core/Src/can.c **** 
 156              		.loc 1 72 5 view .LVU40
  72:Core/Src/can.c **** 
 157              		.loc 1 72 5 view .LVU41
 158 001a 03F5D633 		add	r3, r3, #109568
 159 001e DA69     		ldr	r2, [r3, #28]
 160 0020 42F00072 		orr	r2, r2, #33554432
 161 0024 DA61     		str	r2, [r3, #28]
  72:Core/Src/can.c **** 
 162              		.loc 1 72 5 view .LVU42
 163 0026 DA69     		ldr	r2, [r3, #28]
 164 0028 02F00072 		and	r2, r2, #33554432
 165 002c 0092     		str	r2, [sp]
  72:Core/Src/can.c **** 
 166              		.loc 1 72 5 view .LVU43
 167 002e 009A     		ldr	r2, [sp]
 168              	.LBE2:
  72:Core/Src/can.c **** 
 169              		.loc 1 72 5 view .LVU44
  74:Core/Src/can.c ****     /**CAN GPIO Configuration
 170              		.loc 1 74 5 view .LVU45
 171              	.LBB3:
  74:Core/Src/can.c ****     /**CAN GPIO Configuration
 172              		.loc 1 74 5 view .LVU46
  74:Core/Src/can.c ****     /**CAN GPIO Configuration
 173              		.loc 1 74 5 view .LVU47
 174 0030 9A69     		ldr	r2, [r3, #24]
 175 0032 42F00802 		orr	r2, r2, #8
 176 0036 9A61     		str	r2, [r3, #24]
  74:Core/Src/can.c ****     /**CAN GPIO Configuration
 177              		.loc 1 74 5 view .LVU48
 178 0038 9B69     		ldr	r3, [r3, #24]
 179 003a 03F00803 		and	r3, r3, #8
 180 003e 0193     		str	r3, [sp, #4]
  74:Core/Src/can.c ****     /**CAN GPIO Configuration
 181              		.loc 1 74 5 view .LVU49
ARM GAS  /var/folders/8x/_y6g3dfs0698dfd49y4vcg_w0000gn/T//ccCJXnue.s 			page 6


 182 0040 019B     		ldr	r3, [sp, #4]
 183              	.LBE3:
  74:Core/Src/can.c ****     /**CAN GPIO Configuration
 184              		.loc 1 74 5 view .LVU50
  79:Core/Src/can.c ****     GPIO_InitStruct.Mode = GPIO_MODE_INPUT;
 185              		.loc 1 79 5 view .LVU51
  79:Core/Src/can.c ****     GPIO_InitStruct.Mode = GPIO_MODE_INPUT;
 186              		.loc 1 79 25 is_stmt 0 view .LVU52
 187 0042 4FF48073 		mov	r3, #256
 188 0046 0293     		str	r3, [sp, #8]
  80:Core/Src/can.c ****     GPIO_InitStruct.Pull = GPIO_PULLUP;
 189              		.loc 1 80 5 is_stmt 1 view .LVU53
  81:Core/Src/can.c ****     HAL_GPIO_Init(GPIOB, &GPIO_InitStruct);
 190              		.loc 1 81 5 view .LVU54
  81:Core/Src/can.c ****     HAL_GPIO_Init(GPIOB, &GPIO_InitStruct);
 191              		.loc 1 81 26 is_stmt 0 view .LVU55
 192 0048 0123     		movs	r3, #1
 193 004a 0493     		str	r3, [sp, #16]
  82:Core/Src/can.c **** 
 194              		.loc 1 82 5 is_stmt 1 view .LVU56
 195 004c 0D4C     		ldr	r4, .L11+4
 196 004e 02A9     		add	r1, sp, #8
 197 0050 2046     		mov	r0, r4
 198              	.LVL5:
  82:Core/Src/can.c **** 
 199              		.loc 1 82 5 is_stmt 0 view .LVU57
 200 0052 FFF7FEFF 		bl	HAL_GPIO_Init
 201              	.LVL6:
  84:Core/Src/can.c ****     GPIO_InitStruct.Mode = GPIO_MODE_AF_PP;
 202              		.loc 1 84 5 is_stmt 1 view .LVU58
  84:Core/Src/can.c ****     GPIO_InitStruct.Mode = GPIO_MODE_AF_PP;
 203              		.loc 1 84 25 is_stmt 0 view .LVU59
 204 0056 4FF40073 		mov	r3, #512
 205 005a 0293     		str	r3, [sp, #8]
  85:Core/Src/can.c ****     GPIO_InitStruct.Speed = GPIO_SPEED_FREQ_HIGH;
 206              		.loc 1 85 5 is_stmt 1 view .LVU60
  85:Core/Src/can.c ****     GPIO_InitStruct.Speed = GPIO_SPEED_FREQ_HIGH;
 207              		.loc 1 85 26 is_stmt 0 view .LVU61
 208 005c 0223     		movs	r3, #2
 209 005e 0393     		str	r3, [sp, #12]
  86:Core/Src/can.c ****     HAL_GPIO_Init(GPIOB, &GPIO_InitStruct);
 210              		.loc 1 86 5 is_stmt 1 view .LVU62
  86:Core/Src/can.c ****     HAL_GPIO_Init(GPIOB, &GPIO_InitStruct);
 211              		.loc 1 86 27 is_stmt 0 view .LVU63
 212 0060 0323     		movs	r3, #3
 213 0062 0593     		str	r3, [sp, #20]
  87:Core/Src/can.c **** 
 214              		.loc 1 87 5 is_stmt 1 view .LVU64
 215 0064 02A9     		add	r1, sp, #8
 216 0066 2046     		mov	r0, r4
 217 0068 FFF7FEFF 		bl	HAL_GPIO_Init
 218              	.LVL7:
  89:Core/Src/can.c **** 
 219              		.loc 1 89 5 view .LVU65
 220              	.LBB4:
  89:Core/Src/can.c **** 
 221              		.loc 1 89 5 view .LVU66
ARM GAS  /var/folders/8x/_y6g3dfs0698dfd49y4vcg_w0000gn/T//ccCJXnue.s 			page 7


 222 006c 064A     		ldr	r2, .L11+8
 223 006e 5368     		ldr	r3, [r2, #4]
 224              	.LVL8:
  89:Core/Src/can.c **** 
 225              		.loc 1 89 5 view .LVU67
 226 0070 23F4C043 		bic	r3, r3, #24576
 227              	.LVL9:
  89:Core/Src/can.c **** 
 228              		.loc 1 89 5 view .LVU68
  89:Core/Src/can.c **** 
 229              		.loc 1 89 5 view .LVU69
 230 0074 43F0E063 		orr	r3, r3, #117440512
 231              	.LVL10:
  89:Core/Src/can.c **** 
 232              		.loc 1 89 5 is_stmt 0 view .LVU70
 233 0078 43F48043 		orr	r3, r3, #16384
 234              	.LVL11:
  89:Core/Src/can.c **** 
 235              		.loc 1 89 5 is_stmt 1 view .LVU71
 236 007c 5360     		str	r3, [r2, #4]
 237              	.LBE4:
  89:Core/Src/can.c **** 
 238              		.loc 1 89 5 discriminator 1 view .LVU72
 239              		.loc 1 95 1 is_stmt 0 view .LVU73
 240 007e CAE7     		b	.L7
 241              	.L12:
 242              		.align	2
 243              	.L11:
 244 0080 00640040 		.word	1073767424
 245 0084 000C0140 		.word	1073810432
 246 0088 00000140 		.word	1073807360
 247              		.cfi_endproc
 248              	.LFE66:
 250              		.section	.text.HAL_CAN_MspDeInit,"ax",%progbits
 251              		.align	1
 252              		.global	HAL_CAN_MspDeInit
 253              		.syntax unified
 254              		.thumb
 255              		.thumb_func
 257              	HAL_CAN_MspDeInit:
 258              	.LVL12:
 259              	.LFB67:
  96:Core/Src/can.c **** 
  97:Core/Src/can.c **** void HAL_CAN_MspDeInit(CAN_HandleTypeDef* canHandle)
  98:Core/Src/can.c **** {
 260              		.loc 1 98 1 is_stmt 1 view -0
 261              		.cfi_startproc
 262              		@ args = 0, pretend = 0, frame = 0
 263              		@ frame_needed = 0, uses_anonymous_args = 0
 264              		.loc 1 98 1 is_stmt 0 view .LVU75
 265 0000 08B5     		push	{r3, lr}
 266              	.LCFI5:
 267              		.cfi_def_cfa_offset 8
 268              		.cfi_offset 3, -8
 269              		.cfi_offset 14, -4
  99:Core/Src/can.c **** 
 100:Core/Src/can.c ****   if(canHandle->Instance==CAN1)
ARM GAS  /var/folders/8x/_y6g3dfs0698dfd49y4vcg_w0000gn/T//ccCJXnue.s 			page 8


 270              		.loc 1 100 3 is_stmt 1 view .LVU76
 271              		.loc 1 100 15 is_stmt 0 view .LVU77
 272 0002 0268     		ldr	r2, [r0]
 273              		.loc 1 100 5 view .LVU78
 274 0004 074B     		ldr	r3, .L17
 275 0006 9A42     		cmp	r2, r3
 276 0008 00D0     		beq	.L16
 277              	.LVL13:
 278              	.L13:
 101:Core/Src/can.c ****   {
 102:Core/Src/can.c ****   /* USER CODE BEGIN CAN1_MspDeInit 0 */
 103:Core/Src/can.c **** 
 104:Core/Src/can.c ****   /* USER CODE END CAN1_MspDeInit 0 */
 105:Core/Src/can.c ****     /* Peripheral clock disable */
 106:Core/Src/can.c ****     __HAL_RCC_CAN1_CLK_DISABLE();
 107:Core/Src/can.c **** 
 108:Core/Src/can.c ****     /**CAN GPIO Configuration
 109:Core/Src/can.c ****     PB8     ------> CAN_RX
 110:Core/Src/can.c ****     PB9     ------> CAN_TX
 111:Core/Src/can.c ****     */
 112:Core/Src/can.c ****     HAL_GPIO_DeInit(GPIOB, GPIO_PIN_8|GPIO_PIN_9);
 113:Core/Src/can.c **** 
 114:Core/Src/can.c ****   /* USER CODE BEGIN CAN1_MspDeInit 1 */
 115:Core/Src/can.c **** 
 116:Core/Src/can.c ****   /* USER CODE END CAN1_MspDeInit 1 */
 117:Core/Src/can.c ****   }
 118:Core/Src/can.c **** }
 279              		.loc 1 118 1 view .LVU79
 280 000a 08BD     		pop	{r3, pc}
 281              	.LVL14:
 282              	.L16:
 106:Core/Src/can.c **** 
 283              		.loc 1 106 5 is_stmt 1 view .LVU80
 284 000c 064A     		ldr	r2, .L17+4
 285 000e D369     		ldr	r3, [r2, #28]
 286 0010 23F00073 		bic	r3, r3, #33554432
 287 0014 D361     		str	r3, [r2, #28]
 112:Core/Src/can.c **** 
 288              		.loc 1 112 5 view .LVU81
 289 0016 4FF44071 		mov	r1, #768
 290 001a 0448     		ldr	r0, .L17+8
 291              	.LVL15:
 112:Core/Src/can.c **** 
 292              		.loc 1 112 5 is_stmt 0 view .LVU82
 293 001c FFF7FEFF 		bl	HAL_GPIO_DeInit
 294              	.LVL16:
 295              		.loc 1 118 1 view .LVU83
 296 0020 F3E7     		b	.L13
 297              	.L18:
 298 0022 00BF     		.align	2
 299              	.L17:
 300 0024 00640040 		.word	1073767424
 301 0028 00100240 		.word	1073876992
 302 002c 000C0140 		.word	1073810432
 303              		.cfi_endproc
 304              	.LFE67:
 306              		.global	hcan
ARM GAS  /var/folders/8x/_y6g3dfs0698dfd49y4vcg_w0000gn/T//ccCJXnue.s 			page 9


 307              		.section	.bss.hcan,"aw",%nobits
 308              		.align	2
 311              	hcan:
 312 0000 00000000 		.space	40
 312      00000000 
 312      00000000 
 312      00000000 
 312      00000000 
 313              		.text
 314              	.Letext0:
 315              		.file 2 "/Applications/ArmGNUToolchain/13.3.rel1/arm-none-eabi/arm-none-eabi/include/machine/_defa
 316              		.file 3 "/Applications/ArmGNUToolchain/13.3.rel1/arm-none-eabi/arm-none-eabi/include/sys/_stdint.h
 317              		.file 4 "Drivers/CMSIS/Device/ST/STM32F1xx/Include/stm32f103xb.h"
 318              		.file 5 "Drivers/CMSIS/Device/ST/STM32F1xx/Include/stm32f1xx.h"
 319              		.file 6 "Drivers/STM32F1xx_HAL_Driver/Inc/stm32f1xx_hal_def.h"
 320              		.file 7 "Drivers/STM32F1xx_HAL_Driver/Inc/stm32f1xx_hal_gpio.h"
 321              		.file 8 "Drivers/STM32F1xx_HAL_Driver/Inc/stm32f1xx_hal_can.h"
 322              		.file 9 "Core/Inc/can.h"
 323              		.file 10 "Core/Inc/main.h"
ARM GAS  /var/folders/8x/_y6g3dfs0698dfd49y4vcg_w0000gn/T//ccCJXnue.s 			page 10

