ARM GAS  /var/folders/8x/_y6g3dfs0698dfd49y4vcg_w0000gn/T//ccwOt2qK.s 			page 1


   1              		.cpu cortex-m3
   2              		.arch armv7-m
   3              		.fpu softvfp
   4              		.eabi_attribute 20, 1
   5              		.eabi_attribute 21, 1
   6              		.eabi_attribute 23, 3
   7              		.eabi_attribute 24, 1
   8              		.eabi_attribute 25, 1
   9              		.eabi_attribute 26, 1
  10              		.eabi_attribute 30, 1
  11              		.eabi_attribute 34, 1
  12              		.eabi_attribute 18, 4
  13              		.file	"main.c"
  14              		.text
  15              	.Ltext0:
  16              		.cfi_sections	.debug_frame
  17              		.file 1 "Core/Src/main.c"
  18              		.section	.text.__io_putchar,"ax",%progbits
  19              		.align	1
  20              		.global	__io_putchar
  21              		.syntax unified
  22              		.thumb
  23              		.thumb_func
  25              	__io_putchar:
  26              	.LVL0:
  27              	.LFB67:
   1:Core/Src/main.c **** /* USER CODE BEGIN Header */
   2:Core/Src/main.c **** /**
   3:Core/Src/main.c ****   ******************************************************************************
   4:Core/Src/main.c ****   * @file           : main.c
   5:Core/Src/main.c ****   * @brief          : Main program body
   6:Core/Src/main.c ****   ******************************************************************************
   7:Core/Src/main.c ****   * @attention
   8:Core/Src/main.c ****   *
   9:Core/Src/main.c ****   * Copyright (c) 2025 STMicroelectronics.
  10:Core/Src/main.c ****   * All rights reserved.
  11:Core/Src/main.c ****   *
  12:Core/Src/main.c ****   * This software is licensed under terms that can be found in the LICENSE file
  13:Core/Src/main.c ****   * in the root directory of this software component.
  14:Core/Src/main.c ****   * If no LICENSE file comes with this software, it is provided AS-IS.
  15:Core/Src/main.c ****   *
  16:Core/Src/main.c ****   ******************************************************************************
  17:Core/Src/main.c ****   */
  18:Core/Src/main.c **** /* USER CODE END Header */
  19:Core/Src/main.c **** /* Includes ------------------------------------------------------------------*/
  20:Core/Src/main.c **** #include "main.h"
  21:Core/Src/main.c **** #include "can.h"
  22:Core/Src/main.c **** #include "i2c.h"
  23:Core/Src/main.c **** #include "usart.h"
  24:Core/Src/main.c **** #include "usb.h"
  25:Core/Src/main.c **** #include "gpio.h"
  26:Core/Src/main.c **** 
  27:Core/Src/main.c **** /* Private includes ----------------------------------------------------------*/
  28:Core/Src/main.c **** /* USER CODE BEGIN Includes */
  29:Core/Src/main.c **** 
  30:Core/Src/main.c **** /* USER CODE END Includes */
  31:Core/Src/main.c **** 
ARM GAS  /var/folders/8x/_y6g3dfs0698dfd49y4vcg_w0000gn/T//ccwOt2qK.s 			page 2


  32:Core/Src/main.c **** /* Private typedef -----------------------------------------------------------*/
  33:Core/Src/main.c **** /* USER CODE BEGIN PTD */
  34:Core/Src/main.c **** 
  35:Core/Src/main.c **** /* USER CODE END PTD */
  36:Core/Src/main.c **** 
  37:Core/Src/main.c **** /* Private define ------------------------------------------------------------*/
  38:Core/Src/main.c **** /* USER CODE BEGIN PD */
  39:Core/Src/main.c **** 
  40:Core/Src/main.c **** /* USER CODE END PD */
  41:Core/Src/main.c **** 
  42:Core/Src/main.c **** /* Private macro -------------------------------------------------------------*/
  43:Core/Src/main.c **** /* USER CODE BEGIN PM */
  44:Core/Src/main.c **** 
  45:Core/Src/main.c **** /* USER CODE END PM */
  46:Core/Src/main.c **** 
  47:Core/Src/main.c **** /* Private variables ---------------------------------------------------------*/
  48:Core/Src/main.c **** 
  49:Core/Src/main.c **** /* USER CODE BEGIN PV */
  50:Core/Src/main.c **** 
  51:Core/Src/main.c **** 
  52:Core/Src/main.c **** 
  53:Core/Src/main.c **** CAN_TxHeaderTypeDef   TxHeader;
  54:Core/Src/main.c **** CAN_RxHeaderTypeDef   RxHeader; //CAN Bus Transmit Header
  55:Core/Src/main.c **** uint8_t               TxData[8];
  56:Core/Src/main.c **** uint32_t              TxMailbox;
  57:Core/Src/main.c **** CAN_FilterTypeDef canfil; //CAN Bus Filter
  58:Core/Src/main.c **** uint32_t canMailbox; //CAN Bus Mail box variable
  59:Core/Src/main.c **** 
  60:Core/Src/main.c **** uint8_t canRX[8] = {0x0,0x0,0x0,0x0,0x0,0x0,0x0,0x0};  //CAN Bus Receive Buffer
  61:Core/Src/main.c **** 
  62:Core/Src/main.c **** 
  63:Core/Src/main.c **** 
  64:Core/Src/main.c **** 
  65:Core/Src/main.c **** /* USER CODE END PV */
  66:Core/Src/main.c **** 
  67:Core/Src/main.c **** /* Private function prototypes -----------------------------------------------*/
  68:Core/Src/main.c **** void SystemClock_Config(void);
  69:Core/Src/main.c **** /* USER CODE BEGIN PFP */
  70:Core/Src/main.c **** #define PUTCHAR_PROTOTYPE int __io_putchar(int ch)
  71:Core/Src/main.c **** 
  72:Core/Src/main.c **** /* USER CODE END PFP */
  73:Core/Src/main.c **** 
  74:Core/Src/main.c **** /* Private user code ---------------------------------------------------------*/
  75:Core/Src/main.c **** /* USER CODE BEGIN 0 */
  76:Core/Src/main.c **** 
  77:Core/Src/main.c **** 
  78:Core/Src/main.c **** 
  79:Core/Src/main.c **** 
  80:Core/Src/main.c **** /* USER CODE END 0 */
  81:Core/Src/main.c **** 
  82:Core/Src/main.c **** /**
  83:Core/Src/main.c ****   * @brief  The application entry point.
  84:Core/Src/main.c ****   * @retval int
  85:Core/Src/main.c ****   */
  86:Core/Src/main.c **** int main(void)
  87:Core/Src/main.c **** {
  88:Core/Src/main.c **** 
ARM GAS  /var/folders/8x/_y6g3dfs0698dfd49y4vcg_w0000gn/T//ccwOt2qK.s 			page 3


  89:Core/Src/main.c ****   /* USER CODE BEGIN 1 */
  90:Core/Src/main.c **** 
  91:Core/Src/main.c ****   /* USER CODE END 1 */
  92:Core/Src/main.c **** 
  93:Core/Src/main.c ****   /* MCU Configuration--------------------------------------------------------*/
  94:Core/Src/main.c **** 
  95:Core/Src/main.c ****   /* Reset of all peripherals, Initializes the Flash interface and the Systick. */
  96:Core/Src/main.c ****   HAL_Init();
  97:Core/Src/main.c **** 
  98:Core/Src/main.c ****   /* USER CODE BEGIN Init */
  99:Core/Src/main.c **** 
 100:Core/Src/main.c ****   /* USER CODE END Init */
 101:Core/Src/main.c **** 
 102:Core/Src/main.c ****   /* Configure the system clock */
 103:Core/Src/main.c ****   SystemClock_Config();
 104:Core/Src/main.c **** 
 105:Core/Src/main.c ****   /* USER CODE BEGIN SysInit */
 106:Core/Src/main.c **** 
 107:Core/Src/main.c ****   /* USER CODE END SysInit */
 108:Core/Src/main.c **** 
 109:Core/Src/main.c ****   /* Initialize all configured peripherals */
 110:Core/Src/main.c ****   MX_GPIO_Init();
 111:Core/Src/main.c ****   MX_CAN_Init();
 112:Core/Src/main.c ****   MX_I2C1_Init();
 113:Core/Src/main.c ****   MX_USART1_UART_Init();
 114:Core/Src/main.c ****   MX_USB_PCD_Init();
 115:Core/Src/main.c ****   /* USER CODE BEGIN 2 */
 116:Core/Src/main.c **** 
 117:Core/Src/main.c ****   CAN_FilterTypeDef canfilterconfig;
 118:Core/Src/main.c **** 
 119:Core/Src/main.c **** 
 120:Core/Src/main.c ****   canfil.FilterBank = 0;
 121:Core/Src/main.c ****   canfil.FilterMode = CAN_FILTERMODE_IDMASK;
 122:Core/Src/main.c ****   canfil.FilterFIFOAssignment = CAN_RX_FIFO0;
 123:Core/Src/main.c ****   canfil.FilterIdHigh = 0;
 124:Core/Src/main.c ****   canfil.FilterIdLow = 0;
 125:Core/Src/main.c ****   canfil.FilterMaskIdHigh = 0;
 126:Core/Src/main.c ****   canfil.FilterMaskIdLow = 0;
 127:Core/Src/main.c ****   canfil.FilterScale = CAN_FILTERSCALE_32BIT;
 128:Core/Src/main.c ****   canfil.FilterActivation = ENABLE;
 129:Core/Src/main.c ****   canfil.SlaveStartFilterBank = 14;
 130:Core/Src/main.c **** 
 131:Core/Src/main.c ****   TxHeader.IDE = CAN_ID_STD;
 132:Core/Src/main.c ****   TxHeader.StdId = 0x446;
 133:Core/Src/main.c ****   TxHeader.RTR = CAN_RTR_DATA;
 134:Core/Src/main.c ****   TxHeader.DLC = 8;
 135:Core/Src/main.c **** 
 136:Core/Src/main.c ****   TxData[0] = 0x01;  
 137:Core/Src/main.c ****   TxData[1] = 0x02; 
 138:Core/Src/main.c ****   TxData[2] = 0x03; 
 139:Core/Src/main.c ****   TxData[3] = 0x04; 
 140:Core/Src/main.c ****   TxData[4] = 0x05; 
 141:Core/Src/main.c ****   TxData[5] = 0x06; 
 142:Core/Src/main.c ****   TxData[6] = 0x07; 
 143:Core/Src/main.c ****   TxData[7] = 0x08; 
 144:Core/Src/main.c **** 
 145:Core/Src/main.c ****   //char msg[] = "Hello, UART!\r\n";
ARM GAS  /var/folders/8x/_y6g3dfs0698dfd49y4vcg_w0000gn/T//ccwOt2qK.s 			page 4


 146:Core/Src/main.c **** 
 147:Core/Src/main.c ****   HAL_CAN_ConfigFilter(&hcan,&canfil);
 148:Core/Src/main.c ****   HAL_CAN_Start(&hcan);
 149:Core/Src/main.c ****   HAL_CAN_ActivateNotification(&hcan,CAN_IT_RX_FIFO0_MSG_PENDING);
 150:Core/Src/main.c **** 
 151:Core/Src/main.c ****   if (HAL_CAN_ActivateNotification(&hcan, CAN_IT_RX_FIFO0_MSG_PENDING) != HAL_OK)
 152:Core/Src/main.c ****   {
 153:Core/Src/main.c **** 	  Error_Handler();
 154:Core/Src/main.c ****   }
 155:Core/Src/main.c **** 
 156:Core/Src/main.c ****   /* USER CODE END 2 */
 157:Core/Src/main.c **** 
 158:Core/Src/main.c ****   /* Infinite loop */
 159:Core/Src/main.c ****   /* USER CODE BEGIN WHILE */
 160:Core/Src/main.c ****   while (1)
 161:Core/Src/main.c ****   {
 162:Core/Src/main.c ****     HAL_Delay(500);
 163:Core/Src/main.c ****     HAL_GPIO_TogglePin(USER_LED_GPIO_Port, USER_LED_Pin);
 164:Core/Src/main.c ****     
 165:Core/Src/main.c ****     // uint32_t free_mailboxes = HAL_CAN_GetTxMailboxesFreeLevel(&hcan);
 166:Core/Src/main.c ****     // printf("Free Mailboxes: %lu\n", free_mailboxes);
 167:Core/Src/main.c ****     
 168:Core/Src/main.c ****     if (HAL_CAN_AddTxMessage(&hcan, &TxHeader, TxData, &TxMailbox) != HAL_OK)
 169:Core/Src/main.c ****     {
 170:Core/Src/main.c ****       Error_Handler ();
 171:Core/Src/main.c ****     }
 172:Core/Src/main.c ****     // if(HAL_CAN_IsTxMessagePending(&hcan, &canMailbox) != 0){
 173:Core/Src/main.c ****     //   printf("Full mailbox\r\n");
 174:Core/Src/main.c ****     // }
 175:Core/Src/main.c ****     if (HAL_CAN_GetRxMessage(&hcan, CAN_RX_FIFO0, &RxHeader, canRX) == HAL_OK) {
 176:Core/Src/main.c ****       printf("received message\r");
 177:Core/Src/main.c ****       printf("Message length is %ld byte(s)\r\n", RxHeader.DLC);
 178:Core/Src/main.c ****       for (uint8_t i = 0; i < 8; i++) {
 179:Core/Src/main.c ****         printf("Byte %d: 0x%02X\r\n", i, canRX[i]);
 180:Core/Src/main.c ****     }
 181:Core/Src/main.c ****     }
 182:Core/Src/main.c ****     /* USER CODE END WHILE */
 183:Core/Src/main.c **** 
 184:Core/Src/main.c ****     /* USER CODE BEGIN 3 */
 185:Core/Src/main.c ****   }
 186:Core/Src/main.c ****   /* USER CODE END 3 */
 187:Core/Src/main.c **** }
 188:Core/Src/main.c **** 
 189:Core/Src/main.c **** /**
 190:Core/Src/main.c ****   * @brief System Clock Configuration
 191:Core/Src/main.c ****   * @retval None
 192:Core/Src/main.c ****   */
 193:Core/Src/main.c **** void SystemClock_Config(void)
 194:Core/Src/main.c **** {
 195:Core/Src/main.c ****   RCC_OscInitTypeDef RCC_OscInitStruct = {0};
 196:Core/Src/main.c ****   RCC_ClkInitTypeDef RCC_ClkInitStruct = {0};
 197:Core/Src/main.c ****   RCC_PeriphCLKInitTypeDef PeriphClkInit = {0};
 198:Core/Src/main.c **** 
 199:Core/Src/main.c ****   /** Initializes the RCC Oscillators according to the specified parameters
 200:Core/Src/main.c ****   * in the RCC_OscInitTypeDef structure.
 201:Core/Src/main.c ****   */
 202:Core/Src/main.c ****   RCC_OscInitStruct.OscillatorType = RCC_OSCILLATORTYPE_HSE;
ARM GAS  /var/folders/8x/_y6g3dfs0698dfd49y4vcg_w0000gn/T//ccwOt2qK.s 			page 5


 203:Core/Src/main.c ****   RCC_OscInitStruct.HSEState = RCC_HSE_ON;
 204:Core/Src/main.c ****   RCC_OscInitStruct.HSEPredivValue = RCC_HSE_PREDIV_DIV2;
 205:Core/Src/main.c ****   RCC_OscInitStruct.HSIState = RCC_HSI_ON;
 206:Core/Src/main.c ****   RCC_OscInitStruct.PLL.PLLState = RCC_PLL_ON;
 207:Core/Src/main.c ****   RCC_OscInitStruct.PLL.PLLSource = RCC_PLLSOURCE_HSE;
 208:Core/Src/main.c ****   RCC_OscInitStruct.PLL.PLLMUL = RCC_PLL_MUL9;
 209:Core/Src/main.c ****   if (HAL_RCC_OscConfig(&RCC_OscInitStruct) != HAL_OK)
 210:Core/Src/main.c ****   {
 211:Core/Src/main.c ****     Error_Handler();
 212:Core/Src/main.c ****   }
 213:Core/Src/main.c **** 
 214:Core/Src/main.c ****   /** Initializes the CPU, AHB and APB buses clocks
 215:Core/Src/main.c ****   */
 216:Core/Src/main.c ****   RCC_ClkInitStruct.ClockType = RCC_CLOCKTYPE_HCLK|RCC_CLOCKTYPE_SYSCLK
 217:Core/Src/main.c ****                               |RCC_CLOCKTYPE_PCLK1|RCC_CLOCKTYPE_PCLK2;
 218:Core/Src/main.c ****   RCC_ClkInitStruct.SYSCLKSource = RCC_SYSCLKSOURCE_PLLCLK;
 219:Core/Src/main.c ****   RCC_ClkInitStruct.AHBCLKDivider = RCC_SYSCLK_DIV1;
 220:Core/Src/main.c ****   RCC_ClkInitStruct.APB1CLKDivider = RCC_HCLK_DIV2;
 221:Core/Src/main.c ****   RCC_ClkInitStruct.APB2CLKDivider = RCC_HCLK_DIV1;
 222:Core/Src/main.c **** 
 223:Core/Src/main.c ****   if (HAL_RCC_ClockConfig(&RCC_ClkInitStruct, FLASH_LATENCY_2) != HAL_OK)
 224:Core/Src/main.c ****   {
 225:Core/Src/main.c ****     Error_Handler();
 226:Core/Src/main.c ****   }
 227:Core/Src/main.c ****   PeriphClkInit.PeriphClockSelection = RCC_PERIPHCLK_USB;
 228:Core/Src/main.c ****   PeriphClkInit.UsbClockSelection = RCC_USBCLKSOURCE_PLL_DIV1_5;
 229:Core/Src/main.c ****   if (HAL_RCCEx_PeriphCLKConfig(&PeriphClkInit) != HAL_OK)
 230:Core/Src/main.c ****   {
 231:Core/Src/main.c ****     Error_Handler();
 232:Core/Src/main.c ****   }
 233:Core/Src/main.c **** }
 234:Core/Src/main.c **** 
 235:Core/Src/main.c **** /* USER CODE BEGIN 4 */
 236:Core/Src/main.c **** PUTCHAR_PROTOTYPE
 237:Core/Src/main.c **** {
  28              		.loc 1 237 1 view -0
  29              		.cfi_startproc
  30              		@ args = 0, pretend = 0, frame = 8
  31              		@ frame_needed = 0, uses_anonymous_args = 0
  32              		.loc 1 237 1 is_stmt 0 view .LVU1
  33 0000 00B5     		push	{lr}
  34              	.LCFI0:
  35              		.cfi_def_cfa_offset 4
  36              		.cfi_offset 14, -4
  37 0002 83B0     		sub	sp, sp, #12
  38              	.LCFI1:
  39              		.cfi_def_cfa_offset 16
  40 0004 0190     		str	r0, [sp, #4]
 238:Core/Src/main.c ****   /* Place your implementation of fputc here */
 239:Core/Src/main.c ****   /* e.g. write a character to the USART1 and Loop until the end of transmission */
 240:Core/Src/main.c ****   HAL_UART_Transmit(&huart1, (uint8_t *)&ch, 1, 0xFFFF);
  41              		.loc 1 240 3 is_stmt 1 view .LVU2
  42 0006 4FF6FF73 		movw	r3, #65535
  43 000a 0122     		movs	r2, #1
  44 000c 01A9     		add	r1, sp, #4
  45 000e 0348     		ldr	r0, .L3
  46              	.LVL1:
ARM GAS  /var/folders/8x/_y6g3dfs0698dfd49y4vcg_w0000gn/T//ccwOt2qK.s 			page 6


  47              		.loc 1 240 3 is_stmt 0 view .LVU3
  48 0010 FFF7FEFF 		bl	HAL_UART_Transmit
  49              	.LVL2:
 241:Core/Src/main.c **** 
 242:Core/Src/main.c ****   return ch;
  50              		.loc 1 242 3 is_stmt 1 view .LVU4
 243:Core/Src/main.c **** }
  51              		.loc 1 243 1 is_stmt 0 view .LVU5
  52 0014 0198     		ldr	r0, [sp, #4]
  53 0016 03B0     		add	sp, sp, #12
  54              	.LCFI2:
  55              		.cfi_def_cfa_offset 4
  56              		@ sp needed
  57 0018 5DF804FB 		ldr	pc, [sp], #4
  58              	.L4:
  59              		.align	2
  60              	.L3:
  61 001c 00000000 		.word	huart1
  62              		.cfi_endproc
  63              	.LFE67:
  65              		.section	.text.send_uart_message,"ax",%progbits
  66              		.align	1
  67              		.global	send_uart_message
  68              		.syntax unified
  69              		.thumb
  70              		.thumb_func
  72              	send_uart_message:
  73              	.LVL3:
  74              	.LFB68:
 244:Core/Src/main.c **** 
 245:Core/Src/main.c **** void send_uart_message(char *message) {
  75              		.loc 1 245 39 is_stmt 1 view -0
  76              		.cfi_startproc
  77              		@ args = 0, pretend = 0, frame = 0
  78              		@ frame_needed = 0, uses_anonymous_args = 0
  79              		.loc 1 245 39 is_stmt 0 view .LVU7
  80 0000 10B5     		push	{r4, lr}
  81              	.LCFI3:
  82              		.cfi_def_cfa_offset 8
  83              		.cfi_offset 4, -8
  84              		.cfi_offset 14, -4
  85 0002 0446     		mov	r4, r0
 246:Core/Src/main.c ****     HAL_UART_Transmit(&huart1, (uint8_t *)message, strlen(message), HAL_MAX_DELAY);
  86              		.loc 1 246 5 is_stmt 1 view .LVU8
  87              		.loc 1 246 52 is_stmt 0 view .LVU9
  88 0004 FFF7FEFF 		bl	strlen
  89              	.LVL4:
  90              		.loc 1 246 5 discriminator 1 view .LVU10
  91 0008 4FF0FF33 		mov	r3, #-1
  92 000c 82B2     		uxth	r2, r0
  93 000e 2146     		mov	r1, r4
  94 0010 0148     		ldr	r0, .L7
  95 0012 FFF7FEFF 		bl	HAL_UART_Transmit
  96              	.LVL5:
 247:Core/Src/main.c **** }
  97              		.loc 1 247 1 view .LVU11
  98 0016 10BD     		pop	{r4, pc}
ARM GAS  /var/folders/8x/_y6g3dfs0698dfd49y4vcg_w0000gn/T//ccwOt2qK.s 			page 7


  99              	.LVL6:
 100              	.L8:
 101              		.loc 1 247 1 view .LVU12
 102              		.align	2
 103              	.L7:
 104 0018 00000000 		.word	huart1
 105              		.cfi_endproc
 106              	.LFE68:
 108              		.section	.text.Error_Handler,"ax",%progbits
 109              		.align	1
 110              		.global	Error_Handler
 111              		.syntax unified
 112              		.thumb
 113              		.thumb_func
 115              	Error_Handler:
 116              	.LFB69:
 248:Core/Src/main.c **** 
 249:Core/Src/main.c **** // /**
 250:Core/Src/main.c **** //   * @brief  Reads CANBUS message from FIFO buffer 
 251:Core/Src/main.c **** //   * @author Peter Woolsey
 252:Core/Src/main.c **** //   * @retval None
 253:Core/Src/main.c **** //   */
 254:Core/Src/main.c **** // void HAL_CAN_RxFifo0MsgPendingCallback(CAN_HandleTypeDef *hcan1)
 255:Core/Src/main.c **** // {
 256:Core/Src/main.c **** //   printf("Recieved CANBUS message...\r\n");
 257:Core/Src/main.c **** // 	if (HAL_CAN_GetRxMessage(hcan1, CAN_RX_FIFO0, &RxHeader, canRX) != HAL_OK)
 258:Core/Src/main.c **** //   {
 259:Core/Src/main.c **** //     printf("CAN Message Read Failed. HAL ERROR... \r\n");
 260:Core/Src/main.c **** //   }
 261:Core/Src/main.c **** //   else
 262:Core/Src/main.c **** //   {
 263:Core/Src/main.c **** 
 264:Core/Src/main.c **** //     // Get header info...
 265:Core/Src/main.c **** //     if (RxHeader.IDE == CAN_ID_STD)
 266:Core/Src/main.c **** //     {
 267:Core/Src/main.c **** //       printf("Message has standard ID type...\r\n");
 268:Core/Src/main.c **** //       printf("Message ID:\t%#lx\r\n",RxHeader.StdId);
 269:Core/Src/main.c **** 
 270:Core/Src/main.c **** //     }
 271:Core/Src/main.c **** //     else if (RxHeader.IDE == CAN_ID_EXT)
 272:Core/Src/main.c **** //     {
 273:Core/Src/main.c **** //       printf("Message has extended ID type...\r\n");
 274:Core/Src/main.c **** //       printf("Message ID:\t%#lx\r\n",RxHeader.ExtId);
 275:Core/Src/main.c **** //     }
 276:Core/Src/main.c **** //     else
 277:Core/Src/main.c **** //     {
 278:Core/Src/main.c **** //       printf("ERROR: Unknown IDE type\r\n");
 279:Core/Src/main.c **** //       return;
 280:Core/Src/main.c **** //     }
 281:Core/Src/main.c **** 
 282:Core/Src/main.c **** //     // Get data... 
 283:Core/Src/main.c **** //     // If len(data) < 8 (less than 64 bytes) does the data fill from the front or the back of th
 284:Core/Src/main.c **** //     printf("Message length is %ld byte(s)", RxHeader.DLC);
 285:Core/Src/main.c **** //     for (uint8_t i = 0; i < 8; i++) {
 286:Core/Src/main.c **** //         printf("Byte %d: 0x%02X\r\n", i, canRX[i]);
 287:Core/Src/main.c **** //     }
 288:Core/Src/main.c **** 
ARM GAS  /var/folders/8x/_y6g3dfs0698dfd49y4vcg_w0000gn/T//ccwOt2qK.s 			page 8


 289:Core/Src/main.c **** //   } 
 290:Core/Src/main.c **** 
 291:Core/Src/main.c **** // }
 292:Core/Src/main.c **** 
 293:Core/Src/main.c **** /* USER CODE END 4 */
 294:Core/Src/main.c **** 
 295:Core/Src/main.c **** /**
 296:Core/Src/main.c ****   * @brief  This function is executed in case of error occurrence.
 297:Core/Src/main.c ****   * @retval None
 298:Core/Src/main.c ****   */
 299:Core/Src/main.c **** void Error_Handler(void)
 300:Core/Src/main.c **** {
 117              		.loc 1 300 1 is_stmt 1 view -0
 118              		.cfi_startproc
 119              		@ Volatile: function does not return.
 120              		@ args = 0, pretend = 0, frame = 0
 121              		@ frame_needed = 0, uses_anonymous_args = 0
 122 0000 08B5     		push	{r3, lr}
 123              	.LCFI4:
 124              		.cfi_def_cfa_offset 8
 125              		.cfi_offset 3, -8
 126              		.cfi_offset 14, -4
 301:Core/Src/main.c ****   /* USER CODE BEGIN Error_Handler_Debug */
 302:Core/Src/main.c ****   /* User can add his own implementation to report the HAL error return state */
 303:Core/Src/main.c ****   __disable_irq();
 127              		.loc 1 303 3 view .LVU14
 128              	.LBB4:
 129              	.LBI4:
 130              		.file 2 "Drivers/CMSIS/Include/cmsis_gcc.h"
   1:Drivers/CMSIS/Include/cmsis_gcc.h **** /**************************************************************************//**
   2:Drivers/CMSIS/Include/cmsis_gcc.h ****  * @file     cmsis_gcc.h
   3:Drivers/CMSIS/Include/cmsis_gcc.h ****  * @brief    CMSIS compiler GCC header file
   4:Drivers/CMSIS/Include/cmsis_gcc.h ****  * @version  V5.0.4
   5:Drivers/CMSIS/Include/cmsis_gcc.h ****  * @date     09. April 2018
   6:Drivers/CMSIS/Include/cmsis_gcc.h ****  ******************************************************************************/
   7:Drivers/CMSIS/Include/cmsis_gcc.h **** /*
   8:Drivers/CMSIS/Include/cmsis_gcc.h ****  * Copyright (c) 2009-2018 Arm Limited. All rights reserved.
   9:Drivers/CMSIS/Include/cmsis_gcc.h ****  *
  10:Drivers/CMSIS/Include/cmsis_gcc.h ****  * SPDX-License-Identifier: Apache-2.0
  11:Drivers/CMSIS/Include/cmsis_gcc.h ****  *
  12:Drivers/CMSIS/Include/cmsis_gcc.h ****  * Licensed under the Apache License, Version 2.0 (the License); you may
  13:Drivers/CMSIS/Include/cmsis_gcc.h ****  * not use this file except in compliance with the License.
  14:Drivers/CMSIS/Include/cmsis_gcc.h ****  * You may obtain a copy of the License at
  15:Drivers/CMSIS/Include/cmsis_gcc.h ****  *
  16:Drivers/CMSIS/Include/cmsis_gcc.h ****  * www.apache.org/licenses/LICENSE-2.0
  17:Drivers/CMSIS/Include/cmsis_gcc.h ****  *
  18:Drivers/CMSIS/Include/cmsis_gcc.h ****  * Unless required by applicable law or agreed to in writing, software
  19:Drivers/CMSIS/Include/cmsis_gcc.h ****  * distributed under the License is distributed on an AS IS BASIS, WITHOUT
  20:Drivers/CMSIS/Include/cmsis_gcc.h ****  * WARRANTIES OR CONDITIONS OF ANY KIND, either express or implied.
  21:Drivers/CMSIS/Include/cmsis_gcc.h ****  * See the License for the specific language governing permissions and
  22:Drivers/CMSIS/Include/cmsis_gcc.h ****  * limitations under the License.
  23:Drivers/CMSIS/Include/cmsis_gcc.h ****  */
  24:Drivers/CMSIS/Include/cmsis_gcc.h **** 
  25:Drivers/CMSIS/Include/cmsis_gcc.h **** #ifndef __CMSIS_GCC_H
  26:Drivers/CMSIS/Include/cmsis_gcc.h **** #define __CMSIS_GCC_H
  27:Drivers/CMSIS/Include/cmsis_gcc.h **** 
  28:Drivers/CMSIS/Include/cmsis_gcc.h **** /* ignore some GCC warnings */
ARM GAS  /var/folders/8x/_y6g3dfs0698dfd49y4vcg_w0000gn/T//ccwOt2qK.s 			page 9


  29:Drivers/CMSIS/Include/cmsis_gcc.h **** #pragma GCC diagnostic push
  30:Drivers/CMSIS/Include/cmsis_gcc.h **** #pragma GCC diagnostic ignored "-Wsign-conversion"
  31:Drivers/CMSIS/Include/cmsis_gcc.h **** #pragma GCC diagnostic ignored "-Wconversion"
  32:Drivers/CMSIS/Include/cmsis_gcc.h **** #pragma GCC diagnostic ignored "-Wunused-parameter"
  33:Drivers/CMSIS/Include/cmsis_gcc.h **** 
  34:Drivers/CMSIS/Include/cmsis_gcc.h **** /* Fallback for __has_builtin */
  35:Drivers/CMSIS/Include/cmsis_gcc.h **** #ifndef __has_builtin
  36:Drivers/CMSIS/Include/cmsis_gcc.h ****   #define __has_builtin(x) (0)
  37:Drivers/CMSIS/Include/cmsis_gcc.h **** #endif
  38:Drivers/CMSIS/Include/cmsis_gcc.h **** 
  39:Drivers/CMSIS/Include/cmsis_gcc.h **** /* CMSIS compiler specific defines */
  40:Drivers/CMSIS/Include/cmsis_gcc.h **** #ifndef   __ASM
  41:Drivers/CMSIS/Include/cmsis_gcc.h ****   #define __ASM                                  __asm
  42:Drivers/CMSIS/Include/cmsis_gcc.h **** #endif
  43:Drivers/CMSIS/Include/cmsis_gcc.h **** #ifndef   __INLINE
  44:Drivers/CMSIS/Include/cmsis_gcc.h ****   #define __INLINE                               inline
  45:Drivers/CMSIS/Include/cmsis_gcc.h **** #endif
  46:Drivers/CMSIS/Include/cmsis_gcc.h **** #ifndef   __STATIC_INLINE
  47:Drivers/CMSIS/Include/cmsis_gcc.h ****   #define __STATIC_INLINE                        static inline
  48:Drivers/CMSIS/Include/cmsis_gcc.h **** #endif
  49:Drivers/CMSIS/Include/cmsis_gcc.h **** #ifndef   __STATIC_FORCEINLINE                 
  50:Drivers/CMSIS/Include/cmsis_gcc.h ****   #define __STATIC_FORCEINLINE                   __attribute__((always_inline)) static inline
  51:Drivers/CMSIS/Include/cmsis_gcc.h **** #endif                                           
  52:Drivers/CMSIS/Include/cmsis_gcc.h **** #ifndef   __NO_RETURN
  53:Drivers/CMSIS/Include/cmsis_gcc.h ****   #define __NO_RETURN                            __attribute__((__noreturn__))
  54:Drivers/CMSIS/Include/cmsis_gcc.h **** #endif
  55:Drivers/CMSIS/Include/cmsis_gcc.h **** #ifndef   __USED
  56:Drivers/CMSIS/Include/cmsis_gcc.h ****   #define __USED                                 __attribute__((used))
  57:Drivers/CMSIS/Include/cmsis_gcc.h **** #endif
  58:Drivers/CMSIS/Include/cmsis_gcc.h **** #ifndef   __WEAK
  59:Drivers/CMSIS/Include/cmsis_gcc.h ****   #define __WEAK                                 __attribute__((weak))
  60:Drivers/CMSIS/Include/cmsis_gcc.h **** #endif
  61:Drivers/CMSIS/Include/cmsis_gcc.h **** #ifndef   __PACKED
  62:Drivers/CMSIS/Include/cmsis_gcc.h ****   #define __PACKED                               __attribute__((packed, aligned(1)))
  63:Drivers/CMSIS/Include/cmsis_gcc.h **** #endif
  64:Drivers/CMSIS/Include/cmsis_gcc.h **** #ifndef   __PACKED_STRUCT
  65:Drivers/CMSIS/Include/cmsis_gcc.h ****   #define __PACKED_STRUCT                        struct __attribute__((packed, aligned(1)))
  66:Drivers/CMSIS/Include/cmsis_gcc.h **** #endif
  67:Drivers/CMSIS/Include/cmsis_gcc.h **** #ifndef   __PACKED_UNION
  68:Drivers/CMSIS/Include/cmsis_gcc.h ****   #define __PACKED_UNION                         union __attribute__((packed, aligned(1)))
  69:Drivers/CMSIS/Include/cmsis_gcc.h **** #endif
  70:Drivers/CMSIS/Include/cmsis_gcc.h **** #ifndef   __UNALIGNED_UINT32        /* deprecated */
  71:Drivers/CMSIS/Include/cmsis_gcc.h ****   #pragma GCC diagnostic push
  72:Drivers/CMSIS/Include/cmsis_gcc.h ****   #pragma GCC diagnostic ignored "-Wpacked"
  73:Drivers/CMSIS/Include/cmsis_gcc.h ****   #pragma GCC diagnostic ignored "-Wattributes"
  74:Drivers/CMSIS/Include/cmsis_gcc.h ****   struct __attribute__((packed)) T_UINT32 { uint32_t v; };
  75:Drivers/CMSIS/Include/cmsis_gcc.h ****   #pragma GCC diagnostic pop
  76:Drivers/CMSIS/Include/cmsis_gcc.h ****   #define __UNALIGNED_UINT32(x)                  (((struct T_UINT32 *)(x))->v)
  77:Drivers/CMSIS/Include/cmsis_gcc.h **** #endif
  78:Drivers/CMSIS/Include/cmsis_gcc.h **** #ifndef   __UNALIGNED_UINT16_WRITE
  79:Drivers/CMSIS/Include/cmsis_gcc.h ****   #pragma GCC diagnostic push
  80:Drivers/CMSIS/Include/cmsis_gcc.h ****   #pragma GCC diagnostic ignored "-Wpacked"
  81:Drivers/CMSIS/Include/cmsis_gcc.h ****   #pragma GCC diagnostic ignored "-Wattributes"
  82:Drivers/CMSIS/Include/cmsis_gcc.h ****   __PACKED_STRUCT T_UINT16_WRITE { uint16_t v; };
  83:Drivers/CMSIS/Include/cmsis_gcc.h ****   #pragma GCC diagnostic pop
  84:Drivers/CMSIS/Include/cmsis_gcc.h ****   #define __UNALIGNED_UINT16_WRITE(addr, val)    (void)((((struct T_UINT16_WRITE *)(void *)(addr))-
  85:Drivers/CMSIS/Include/cmsis_gcc.h **** #endif
ARM GAS  /var/folders/8x/_y6g3dfs0698dfd49y4vcg_w0000gn/T//ccwOt2qK.s 			page 10


  86:Drivers/CMSIS/Include/cmsis_gcc.h **** #ifndef   __UNALIGNED_UINT16_READ
  87:Drivers/CMSIS/Include/cmsis_gcc.h ****   #pragma GCC diagnostic push
  88:Drivers/CMSIS/Include/cmsis_gcc.h ****   #pragma GCC diagnostic ignored "-Wpacked"
  89:Drivers/CMSIS/Include/cmsis_gcc.h ****   #pragma GCC diagnostic ignored "-Wattributes"
  90:Drivers/CMSIS/Include/cmsis_gcc.h ****   __PACKED_STRUCT T_UINT16_READ { uint16_t v; };
  91:Drivers/CMSIS/Include/cmsis_gcc.h ****   #pragma GCC diagnostic pop
  92:Drivers/CMSIS/Include/cmsis_gcc.h ****   #define __UNALIGNED_UINT16_READ(addr)          (((const struct T_UINT16_READ *)(const void *)(add
  93:Drivers/CMSIS/Include/cmsis_gcc.h **** #endif
  94:Drivers/CMSIS/Include/cmsis_gcc.h **** #ifndef   __UNALIGNED_UINT32_WRITE
  95:Drivers/CMSIS/Include/cmsis_gcc.h ****   #pragma GCC diagnostic push
  96:Drivers/CMSIS/Include/cmsis_gcc.h ****   #pragma GCC diagnostic ignored "-Wpacked"
  97:Drivers/CMSIS/Include/cmsis_gcc.h ****   #pragma GCC diagnostic ignored "-Wattributes"
  98:Drivers/CMSIS/Include/cmsis_gcc.h ****   __PACKED_STRUCT T_UINT32_WRITE { uint32_t v; };
  99:Drivers/CMSIS/Include/cmsis_gcc.h ****   #pragma GCC diagnostic pop
 100:Drivers/CMSIS/Include/cmsis_gcc.h ****   #define __UNALIGNED_UINT32_WRITE(addr, val)    (void)((((struct T_UINT32_WRITE *)(void *)(addr))-
 101:Drivers/CMSIS/Include/cmsis_gcc.h **** #endif
 102:Drivers/CMSIS/Include/cmsis_gcc.h **** #ifndef   __UNALIGNED_UINT32_READ
 103:Drivers/CMSIS/Include/cmsis_gcc.h ****   #pragma GCC diagnostic push
 104:Drivers/CMSIS/Include/cmsis_gcc.h ****   #pragma GCC diagnostic ignored "-Wpacked"
 105:Drivers/CMSIS/Include/cmsis_gcc.h ****   #pragma GCC diagnostic ignored "-Wattributes"
 106:Drivers/CMSIS/Include/cmsis_gcc.h ****   __PACKED_STRUCT T_UINT32_READ { uint32_t v; };
 107:Drivers/CMSIS/Include/cmsis_gcc.h ****   #pragma GCC diagnostic pop
 108:Drivers/CMSIS/Include/cmsis_gcc.h ****   #define __UNALIGNED_UINT32_READ(addr)          (((const struct T_UINT32_READ *)(const void *)(add
 109:Drivers/CMSIS/Include/cmsis_gcc.h **** #endif
 110:Drivers/CMSIS/Include/cmsis_gcc.h **** #ifndef   __ALIGNED
 111:Drivers/CMSIS/Include/cmsis_gcc.h ****   #define __ALIGNED(x)                           __attribute__((aligned(x)))
 112:Drivers/CMSIS/Include/cmsis_gcc.h **** #endif
 113:Drivers/CMSIS/Include/cmsis_gcc.h **** #ifndef   __RESTRICT
 114:Drivers/CMSIS/Include/cmsis_gcc.h ****   #define __RESTRICT                             __restrict
 115:Drivers/CMSIS/Include/cmsis_gcc.h **** #endif
 116:Drivers/CMSIS/Include/cmsis_gcc.h **** 
 117:Drivers/CMSIS/Include/cmsis_gcc.h **** 
 118:Drivers/CMSIS/Include/cmsis_gcc.h **** /* ###########################  Core Function Access  ########################### */
 119:Drivers/CMSIS/Include/cmsis_gcc.h **** /** \ingroup  CMSIS_Core_FunctionInterface
 120:Drivers/CMSIS/Include/cmsis_gcc.h ****     \defgroup CMSIS_Core_RegAccFunctions CMSIS Core Register Access Functions
 121:Drivers/CMSIS/Include/cmsis_gcc.h ****   @{
 122:Drivers/CMSIS/Include/cmsis_gcc.h ****  */
 123:Drivers/CMSIS/Include/cmsis_gcc.h **** 
 124:Drivers/CMSIS/Include/cmsis_gcc.h **** /**
 125:Drivers/CMSIS/Include/cmsis_gcc.h ****   \brief   Enable IRQ Interrupts
 126:Drivers/CMSIS/Include/cmsis_gcc.h ****   \details Enables IRQ interrupts by clearing the I-bit in the CPSR.
 127:Drivers/CMSIS/Include/cmsis_gcc.h ****            Can only be executed in Privileged modes.
 128:Drivers/CMSIS/Include/cmsis_gcc.h ****  */
 129:Drivers/CMSIS/Include/cmsis_gcc.h **** __STATIC_FORCEINLINE void __enable_irq(void)
 130:Drivers/CMSIS/Include/cmsis_gcc.h **** {
 131:Drivers/CMSIS/Include/cmsis_gcc.h ****   __ASM volatile ("cpsie i" : : : "memory");
 132:Drivers/CMSIS/Include/cmsis_gcc.h **** }
 133:Drivers/CMSIS/Include/cmsis_gcc.h **** 
 134:Drivers/CMSIS/Include/cmsis_gcc.h **** 
 135:Drivers/CMSIS/Include/cmsis_gcc.h **** /**
 136:Drivers/CMSIS/Include/cmsis_gcc.h ****   \brief   Disable IRQ Interrupts
 137:Drivers/CMSIS/Include/cmsis_gcc.h ****   \details Disables IRQ interrupts by setting the I-bit in the CPSR.
 138:Drivers/CMSIS/Include/cmsis_gcc.h ****            Can only be executed in Privileged modes.
 139:Drivers/CMSIS/Include/cmsis_gcc.h ****  */
 140:Drivers/CMSIS/Include/cmsis_gcc.h **** __STATIC_FORCEINLINE void __disable_irq(void)
 131              		.loc 2 140 27 view .LVU15
 132              	.LBB5:
ARM GAS  /var/folders/8x/_y6g3dfs0698dfd49y4vcg_w0000gn/T//ccwOt2qK.s 			page 11


 141:Drivers/CMSIS/Include/cmsis_gcc.h **** {
 142:Drivers/CMSIS/Include/cmsis_gcc.h ****   __ASM volatile ("cpsid i" : : : "memory");
 133              		.loc 2 142 3 view .LVU16
 134              		.syntax unified
 135              	@ 142 "Drivers/CMSIS/Include/cmsis_gcc.h" 1
 136 0002 72B6     		cpsid i
 137              	@ 0 "" 2
 138              		.thumb
 139              		.syntax unified
 140              	.L10:
 141              	.LBE5:
 142              	.LBE4:
 304:Core/Src/main.c ****   while (1)
 143              		.loc 1 304 3 view .LVU17
 305:Core/Src/main.c ****   {
 306:Core/Src/main.c ****     //printf("bruh");
 307:Core/Src/main.c ****     HAL_GPIO_TogglePin(USER_LED_GPIO_Port, USER_LED_Pin);
 144              		.loc 1 307 5 view .LVU18
 145 0004 0421     		movs	r1, #4
 146 0006 0348     		ldr	r0, .L12
 147 0008 FFF7FEFF 		bl	HAL_GPIO_TogglePin
 148              	.LVL7:
 308:Core/Src/main.c ****     HAL_Delay(200);
 149              		.loc 1 308 5 discriminator 1 view .LVU19
 150 000c C820     		movs	r0, #200
 151 000e FFF7FEFF 		bl	HAL_Delay
 152              	.LVL8:
 304:Core/Src/main.c ****   while (1)
 153              		.loc 1 304 9 view .LVU20
 154 0012 F7E7     		b	.L10
 155              	.L13:
 156              		.align	2
 157              	.L12:
 158 0014 00080140 		.word	1073809408
 159              		.cfi_endproc
 160              	.LFE69:
 162              		.section	.text.SystemClock_Config,"ax",%progbits
 163              		.align	1
 164              		.global	SystemClock_Config
 165              		.syntax unified
 166              		.thumb
 167              		.thumb_func
 169              	SystemClock_Config:
 170              	.LFB66:
 194:Core/Src/main.c ****   RCC_OscInitTypeDef RCC_OscInitStruct = {0};
 171              		.loc 1 194 1 view -0
 172              		.cfi_startproc
 173              		@ args = 0, pretend = 0, frame = 80
 174              		@ frame_needed = 0, uses_anonymous_args = 0
 175 0000 00B5     		push	{lr}
 176              	.LCFI5:
 177              		.cfi_def_cfa_offset 4
 178              		.cfi_offset 14, -4
 179 0002 95B0     		sub	sp, sp, #84
 180              	.LCFI6:
 181              		.cfi_def_cfa_offset 88
 195:Core/Src/main.c ****   RCC_ClkInitTypeDef RCC_ClkInitStruct = {0};
ARM GAS  /var/folders/8x/_y6g3dfs0698dfd49y4vcg_w0000gn/T//ccwOt2qK.s 			page 12


 182              		.loc 1 195 3 view .LVU22
 195:Core/Src/main.c ****   RCC_ClkInitTypeDef RCC_ClkInitStruct = {0};
 183              		.loc 1 195 22 is_stmt 0 view .LVU23
 184 0004 2822     		movs	r2, #40
 185 0006 0021     		movs	r1, #0
 186 0008 0DEB0200 		add	r0, sp, r2
 187 000c FFF7FEFF 		bl	memset
 188              	.LVL9:
 196:Core/Src/main.c ****   RCC_PeriphCLKInitTypeDef PeriphClkInit = {0};
 189              		.loc 1 196 3 is_stmt 1 view .LVU24
 196:Core/Src/main.c ****   RCC_PeriphCLKInitTypeDef PeriphClkInit = {0};
 190              		.loc 1 196 22 is_stmt 0 view .LVU25
 191 0010 0023     		movs	r3, #0
 192 0012 0593     		str	r3, [sp, #20]
 193 0014 0693     		str	r3, [sp, #24]
 194 0016 0793     		str	r3, [sp, #28]
 195 0018 0893     		str	r3, [sp, #32]
 196 001a 0993     		str	r3, [sp, #36]
 197:Core/Src/main.c **** 
 197              		.loc 1 197 3 is_stmt 1 view .LVU26
 197:Core/Src/main.c **** 
 198              		.loc 1 197 28 is_stmt 0 view .LVU27
 199 001c 0193     		str	r3, [sp, #4]
 200 001e 0293     		str	r3, [sp, #8]
 201 0020 0393     		str	r3, [sp, #12]
 202 0022 0493     		str	r3, [sp, #16]
 202:Core/Src/main.c ****   RCC_OscInitStruct.HSEState = RCC_HSE_ON;
 203              		.loc 1 202 3 is_stmt 1 view .LVU28
 202:Core/Src/main.c ****   RCC_OscInitStruct.HSEState = RCC_HSE_ON;
 204              		.loc 1 202 36 is_stmt 0 view .LVU29
 205 0024 0122     		movs	r2, #1
 206 0026 0A92     		str	r2, [sp, #40]
 203:Core/Src/main.c ****   RCC_OscInitStruct.HSEPredivValue = RCC_HSE_PREDIV_DIV2;
 207              		.loc 1 203 3 is_stmt 1 view .LVU30
 203:Core/Src/main.c ****   RCC_OscInitStruct.HSEPredivValue = RCC_HSE_PREDIV_DIV2;
 208              		.loc 1 203 30 is_stmt 0 view .LVU31
 209 0028 4FF48033 		mov	r3, #65536
 210 002c 0B93     		str	r3, [sp, #44]
 204:Core/Src/main.c ****   RCC_OscInitStruct.HSIState = RCC_HSI_ON;
 211              		.loc 1 204 3 is_stmt 1 view .LVU32
 204:Core/Src/main.c ****   RCC_OscInitStruct.HSIState = RCC_HSI_ON;
 212              		.loc 1 204 36 is_stmt 0 view .LVU33
 213 002e 4FF40031 		mov	r1, #131072
 214 0032 0C91     		str	r1, [sp, #48]
 205:Core/Src/main.c ****   RCC_OscInitStruct.PLL.PLLState = RCC_PLL_ON;
 215              		.loc 1 205 3 is_stmt 1 view .LVU34
 205:Core/Src/main.c ****   RCC_OscInitStruct.PLL.PLLState = RCC_PLL_ON;
 216              		.loc 1 205 30 is_stmt 0 view .LVU35
 217 0034 0E92     		str	r2, [sp, #56]
 206:Core/Src/main.c ****   RCC_OscInitStruct.PLL.PLLSource = RCC_PLLSOURCE_HSE;
 218              		.loc 1 206 3 is_stmt 1 view .LVU36
 206:Core/Src/main.c ****   RCC_OscInitStruct.PLL.PLLSource = RCC_PLLSOURCE_HSE;
 219              		.loc 1 206 34 is_stmt 0 view .LVU37
 220 0036 0222     		movs	r2, #2
 221 0038 1192     		str	r2, [sp, #68]
 207:Core/Src/main.c ****   RCC_OscInitStruct.PLL.PLLMUL = RCC_PLL_MUL9;
 222              		.loc 1 207 3 is_stmt 1 view .LVU38
ARM GAS  /var/folders/8x/_y6g3dfs0698dfd49y4vcg_w0000gn/T//ccwOt2qK.s 			page 13


 207:Core/Src/main.c ****   RCC_OscInitStruct.PLL.PLLMUL = RCC_PLL_MUL9;
 223              		.loc 1 207 35 is_stmt 0 view .LVU39
 224 003a 1293     		str	r3, [sp, #72]
 208:Core/Src/main.c ****   if (HAL_RCC_OscConfig(&RCC_OscInitStruct) != HAL_OK)
 225              		.loc 1 208 3 is_stmt 1 view .LVU40
 208:Core/Src/main.c ****   if (HAL_RCC_OscConfig(&RCC_OscInitStruct) != HAL_OK)
 226              		.loc 1 208 32 is_stmt 0 view .LVU41
 227 003c 4FF4E013 		mov	r3, #1835008
 228 0040 1393     		str	r3, [sp, #76]
 209:Core/Src/main.c ****   {
 229              		.loc 1 209 3 is_stmt 1 view .LVU42
 209:Core/Src/main.c ****   {
 230              		.loc 1 209 7 is_stmt 0 view .LVU43
 231 0042 0AA8     		add	r0, sp, #40
 232 0044 FFF7FEFF 		bl	HAL_RCC_OscConfig
 233              	.LVL10:
 209:Core/Src/main.c ****   {
 234              		.loc 1 209 6 discriminator 1 view .LVU44
 235 0048 C0B9     		cbnz	r0, .L19
 216:Core/Src/main.c ****                               |RCC_CLOCKTYPE_PCLK1|RCC_CLOCKTYPE_PCLK2;
 236              		.loc 1 216 3 is_stmt 1 view .LVU45
 216:Core/Src/main.c ****                               |RCC_CLOCKTYPE_PCLK1|RCC_CLOCKTYPE_PCLK2;
 237              		.loc 1 216 31 is_stmt 0 view .LVU46
 238 004a 0F23     		movs	r3, #15
 239 004c 0593     		str	r3, [sp, #20]
 218:Core/Src/main.c ****   RCC_ClkInitStruct.AHBCLKDivider = RCC_SYSCLK_DIV1;
 240              		.loc 1 218 3 is_stmt 1 view .LVU47
 218:Core/Src/main.c ****   RCC_ClkInitStruct.AHBCLKDivider = RCC_SYSCLK_DIV1;
 241              		.loc 1 218 34 is_stmt 0 view .LVU48
 242 004e 0221     		movs	r1, #2
 243 0050 0691     		str	r1, [sp, #24]
 219:Core/Src/main.c ****   RCC_ClkInitStruct.APB1CLKDivider = RCC_HCLK_DIV2;
 244              		.loc 1 219 3 is_stmt 1 view .LVU49
 219:Core/Src/main.c ****   RCC_ClkInitStruct.APB1CLKDivider = RCC_HCLK_DIV2;
 245              		.loc 1 219 35 is_stmt 0 view .LVU50
 246 0052 0023     		movs	r3, #0
 247 0054 0793     		str	r3, [sp, #28]
 220:Core/Src/main.c ****   RCC_ClkInitStruct.APB2CLKDivider = RCC_HCLK_DIV1;
 248              		.loc 1 220 3 is_stmt 1 view .LVU51
 220:Core/Src/main.c ****   RCC_ClkInitStruct.APB2CLKDivider = RCC_HCLK_DIV1;
 249              		.loc 1 220 36 is_stmt 0 view .LVU52
 250 0056 4FF48062 		mov	r2, #1024
 251 005a 0892     		str	r2, [sp, #32]
 221:Core/Src/main.c **** 
 252              		.loc 1 221 3 is_stmt 1 view .LVU53
 221:Core/Src/main.c **** 
 253              		.loc 1 221 36 is_stmt 0 view .LVU54
 254 005c 0993     		str	r3, [sp, #36]
 223:Core/Src/main.c ****   {
 255              		.loc 1 223 3 is_stmt 1 view .LVU55
 223:Core/Src/main.c ****   {
 256              		.loc 1 223 7 is_stmt 0 view .LVU56
 257 005e 05A8     		add	r0, sp, #20
 258 0060 FFF7FEFF 		bl	HAL_RCC_ClockConfig
 259              	.LVL11:
 223:Core/Src/main.c ****   {
 260              		.loc 1 223 6 discriminator 1 view .LVU57
ARM GAS  /var/folders/8x/_y6g3dfs0698dfd49y4vcg_w0000gn/T//ccwOt2qK.s 			page 14


 261 0064 60B9     		cbnz	r0, .L20
 227:Core/Src/main.c ****   PeriphClkInit.UsbClockSelection = RCC_USBCLKSOURCE_PLL_DIV1_5;
 262              		.loc 1 227 3 is_stmt 1 view .LVU58
 227:Core/Src/main.c ****   PeriphClkInit.UsbClockSelection = RCC_USBCLKSOURCE_PLL_DIV1_5;
 263              		.loc 1 227 38 is_stmt 0 view .LVU59
 264 0066 1023     		movs	r3, #16
 265 0068 0193     		str	r3, [sp, #4]
 228:Core/Src/main.c ****   if (HAL_RCCEx_PeriphCLKConfig(&PeriphClkInit) != HAL_OK)
 266              		.loc 1 228 3 is_stmt 1 view .LVU60
 228:Core/Src/main.c ****   if (HAL_RCCEx_PeriphCLKConfig(&PeriphClkInit) != HAL_OK)
 267              		.loc 1 228 35 is_stmt 0 view .LVU61
 268 006a 0023     		movs	r3, #0
 269 006c 0493     		str	r3, [sp, #16]
 229:Core/Src/main.c ****   {
 270              		.loc 1 229 3 is_stmt 1 view .LVU62
 229:Core/Src/main.c ****   {
 271              		.loc 1 229 7 is_stmt 0 view .LVU63
 272 006e 01A8     		add	r0, sp, #4
 273 0070 FFF7FEFF 		bl	HAL_RCCEx_PeriphCLKConfig
 274              	.LVL12:
 229:Core/Src/main.c ****   {
 275              		.loc 1 229 6 discriminator 1 view .LVU64
 276 0074 30B9     		cbnz	r0, .L21
 233:Core/Src/main.c **** 
 277              		.loc 1 233 1 view .LVU65
 278 0076 15B0     		add	sp, sp, #84
 279              	.LCFI7:
 280              		.cfi_remember_state
 281              		.cfi_def_cfa_offset 4
 282              		@ sp needed
 283 0078 5DF804FB 		ldr	pc, [sp], #4
 284              	.L19:
 285              	.LCFI8:
 286              		.cfi_restore_state
 211:Core/Src/main.c ****   }
 287              		.loc 1 211 5 is_stmt 1 view .LVU66
 288 007c FFF7FEFF 		bl	Error_Handler
 289              	.LVL13:
 290              	.L20:
 225:Core/Src/main.c ****   }
 291              		.loc 1 225 5 view .LVU67
 292 0080 FFF7FEFF 		bl	Error_Handler
 293              	.LVL14:
 294              	.L21:
 231:Core/Src/main.c ****   }
 295              		.loc 1 231 5 view .LVU68
 296 0084 FFF7FEFF 		bl	Error_Handler
 297              	.LVL15:
 298              		.cfi_endproc
 299              	.LFE66:
 301              		.section	.rodata.main.str1.4,"aMS",%progbits,1
 302              		.align	2
 303              	.LC0:
 304 0000 72656365 		.ascii	"received message\015\000"
 304      69766564 
 304      206D6573 
 304      73616765 
ARM GAS  /var/folders/8x/_y6g3dfs0698dfd49y4vcg_w0000gn/T//ccwOt2qK.s 			page 15


 304      0D00
 305 0012 0000     		.align	2
 306              	.LC1:
 307 0014 4D657373 		.ascii	"Message length is %ld byte(s)\015\012\000"
 307      61676520 
 307      6C656E67 
 307      74682069 
 307      7320256C 
 308              		.align	2
 309              	.LC2:
 310 0034 42797465 		.ascii	"Byte %d: 0x%02X\015\012\000"
 310      2025643A 
 310      20307825 
 310      3032580D 
 310      0A00
 311              		.section	.text.main,"ax",%progbits
 312              		.align	1
 313              		.global	main
 314              		.syntax unified
 315              		.thumb
 316              		.thumb_func
 318              	main:
 319              	.LFB65:
  87:Core/Src/main.c **** 
 320              		.loc 1 87 1 view -0
 321              		.cfi_startproc
 322              		@ args = 0, pretend = 0, frame = 0
 323              		@ frame_needed = 0, uses_anonymous_args = 0
 324 0000 38B5     		push	{r3, r4, r5, lr}
 325              	.LCFI9:
 326              		.cfi_def_cfa_offset 16
 327              		.cfi_offset 3, -16
 328              		.cfi_offset 4, -12
 329              		.cfi_offset 5, -8
 330              		.cfi_offset 14, -4
  96:Core/Src/main.c **** 
 331              		.loc 1 96 3 view .LVU70
 332 0002 FFF7FEFF 		bl	HAL_Init
 333              	.LVL16:
 103:Core/Src/main.c **** 
 334              		.loc 1 103 3 view .LVU71
 335 0006 FFF7FEFF 		bl	SystemClock_Config
 336              	.LVL17:
 110:Core/Src/main.c ****   MX_CAN_Init();
 337              		.loc 1 110 3 view .LVU72
 338 000a FFF7FEFF 		bl	MX_GPIO_Init
 339              	.LVL18:
 111:Core/Src/main.c ****   MX_I2C1_Init();
 340              		.loc 1 111 3 view .LVU73
 341 000e FFF7FEFF 		bl	MX_CAN_Init
 342              	.LVL19:
 112:Core/Src/main.c ****   MX_USART1_UART_Init();
 343              		.loc 1 112 3 view .LVU74
 344 0012 FFF7FEFF 		bl	MX_I2C1_Init
 345              	.LVL20:
 113:Core/Src/main.c ****   MX_USB_PCD_Init();
 346              		.loc 1 113 3 view .LVU75
ARM GAS  /var/folders/8x/_y6g3dfs0698dfd49y4vcg_w0000gn/T//ccwOt2qK.s 			page 16


 347 0016 FFF7FEFF 		bl	MX_USART1_UART_Init
 348              	.LVL21:
 114:Core/Src/main.c ****   /* USER CODE BEGIN 2 */
 349              		.loc 1 114 3 view .LVU76
 350 001a FFF7FEFF 		bl	MX_USB_PCD_Init
 351              	.LVL22:
 117:Core/Src/main.c **** 
 352              		.loc 1 117 3 view .LVU77
 120:Core/Src/main.c ****   canfil.FilterMode = CAN_FILTERMODE_IDMASK;
 353              		.loc 1 120 3 view .LVU78
 120:Core/Src/main.c ****   canfil.FilterMode = CAN_FILTERMODE_IDMASK;
 354              		.loc 1 120 21 is_stmt 0 view .LVU79
 355 001e 3249     		ldr	r1, .L31
 356 0020 0023     		movs	r3, #0
 357 0022 4B61     		str	r3, [r1, #20]
 121:Core/Src/main.c ****   canfil.FilterFIFOAssignment = CAN_RX_FIFO0;
 358              		.loc 1 121 3 is_stmt 1 view .LVU80
 121:Core/Src/main.c ****   canfil.FilterFIFOAssignment = CAN_RX_FIFO0;
 359              		.loc 1 121 21 is_stmt 0 view .LVU81
 360 0024 8B61     		str	r3, [r1, #24]
 122:Core/Src/main.c ****   canfil.FilterIdHigh = 0;
 361              		.loc 1 122 3 is_stmt 1 view .LVU82
 122:Core/Src/main.c ****   canfil.FilterIdHigh = 0;
 362              		.loc 1 122 31 is_stmt 0 view .LVU83
 363 0026 0B61     		str	r3, [r1, #16]
 123:Core/Src/main.c ****   canfil.FilterIdLow = 0;
 364              		.loc 1 123 3 is_stmt 1 view .LVU84
 123:Core/Src/main.c ****   canfil.FilterIdLow = 0;
 365              		.loc 1 123 23 is_stmt 0 view .LVU85
 366 0028 0B60     		str	r3, [r1]
 124:Core/Src/main.c ****   canfil.FilterMaskIdHigh = 0;
 367              		.loc 1 124 3 is_stmt 1 view .LVU86
 124:Core/Src/main.c ****   canfil.FilterMaskIdHigh = 0;
 368              		.loc 1 124 22 is_stmt 0 view .LVU87
 369 002a 4B60     		str	r3, [r1, #4]
 125:Core/Src/main.c ****   canfil.FilterMaskIdLow = 0;
 370              		.loc 1 125 3 is_stmt 1 view .LVU88
 125:Core/Src/main.c ****   canfil.FilterMaskIdLow = 0;
 371              		.loc 1 125 27 is_stmt 0 view .LVU89
 372 002c 8B60     		str	r3, [r1, #8]
 126:Core/Src/main.c ****   canfil.FilterScale = CAN_FILTERSCALE_32BIT;
 373              		.loc 1 126 3 is_stmt 1 view .LVU90
 126:Core/Src/main.c ****   canfil.FilterScale = CAN_FILTERSCALE_32BIT;
 374              		.loc 1 126 26 is_stmt 0 view .LVU91
 375 002e CB60     		str	r3, [r1, #12]
 127:Core/Src/main.c ****   canfil.FilterActivation = ENABLE;
 376              		.loc 1 127 3 is_stmt 1 view .LVU92
 127:Core/Src/main.c ****   canfil.FilterActivation = ENABLE;
 377              		.loc 1 127 22 is_stmt 0 view .LVU93
 378 0030 0120     		movs	r0, #1
 379 0032 C861     		str	r0, [r1, #28]
 128:Core/Src/main.c ****   canfil.SlaveStartFilterBank = 14;
 380              		.loc 1 128 3 is_stmt 1 view .LVU94
 128:Core/Src/main.c ****   canfil.SlaveStartFilterBank = 14;
 381              		.loc 1 128 27 is_stmt 0 view .LVU95
 382 0034 0862     		str	r0, [r1, #32]
 129:Core/Src/main.c **** 
ARM GAS  /var/folders/8x/_y6g3dfs0698dfd49y4vcg_w0000gn/T//ccwOt2qK.s 			page 17


 383              		.loc 1 129 3 is_stmt 1 view .LVU96
 129:Core/Src/main.c **** 
 384              		.loc 1 129 31 is_stmt 0 view .LVU97
 385 0036 0E22     		movs	r2, #14
 386 0038 4A62     		str	r2, [r1, #36]
 131:Core/Src/main.c ****   TxHeader.StdId = 0x446;
 387              		.loc 1 131 3 is_stmt 1 view .LVU98
 131:Core/Src/main.c ****   TxHeader.StdId = 0x446;
 388              		.loc 1 131 16 is_stmt 0 view .LVU99
 389 003a 2C4A     		ldr	r2, .L31+4
 390 003c 9360     		str	r3, [r2, #8]
 132:Core/Src/main.c ****   TxHeader.RTR = CAN_RTR_DATA;
 391              		.loc 1 132 3 is_stmt 1 view .LVU100
 132:Core/Src/main.c ****   TxHeader.RTR = CAN_RTR_DATA;
 392              		.loc 1 132 18 is_stmt 0 view .LVU101
 393 003e 40F24644 		movw	r4, #1094
 394 0042 1460     		str	r4, [r2]
 133:Core/Src/main.c ****   TxHeader.DLC = 8;
 395              		.loc 1 133 3 is_stmt 1 view .LVU102
 133:Core/Src/main.c ****   TxHeader.DLC = 8;
 396              		.loc 1 133 16 is_stmt 0 view .LVU103
 397 0044 D360     		str	r3, [r2, #12]
 134:Core/Src/main.c **** 
 398              		.loc 1 134 3 is_stmt 1 view .LVU104
 134:Core/Src/main.c **** 
 399              		.loc 1 134 16 is_stmt 0 view .LVU105
 400 0046 0824     		movs	r4, #8
 401 0048 1461     		str	r4, [r2, #16]
 136:Core/Src/main.c ****   TxData[1] = 0x02; 
 402              		.loc 1 136 3 is_stmt 1 view .LVU106
 136:Core/Src/main.c ****   TxData[1] = 0x02; 
 403              		.loc 1 136 13 is_stmt 0 view .LVU107
 404 004a 294B     		ldr	r3, .L31+8
 405 004c 1870     		strb	r0, [r3]
 137:Core/Src/main.c ****   TxData[2] = 0x03; 
 406              		.loc 1 137 3 is_stmt 1 view .LVU108
 137:Core/Src/main.c ****   TxData[2] = 0x03; 
 407              		.loc 1 137 13 is_stmt 0 view .LVU109
 408 004e 0225     		movs	r5, #2
 409 0050 5D70     		strb	r5, [r3, #1]
 138:Core/Src/main.c ****   TxData[3] = 0x04; 
 410              		.loc 1 138 3 is_stmt 1 view .LVU110
 138:Core/Src/main.c ****   TxData[3] = 0x04; 
 411              		.loc 1 138 13 is_stmt 0 view .LVU111
 412 0052 0322     		movs	r2, #3
 413 0054 9A70     		strb	r2, [r3, #2]
 139:Core/Src/main.c ****   TxData[4] = 0x05; 
 414              		.loc 1 139 3 is_stmt 1 view .LVU112
 139:Core/Src/main.c ****   TxData[4] = 0x05; 
 415              		.loc 1 139 13 is_stmt 0 view .LVU113
 416 0056 0422     		movs	r2, #4
 417 0058 DA70     		strb	r2, [r3, #3]
 140:Core/Src/main.c ****   TxData[5] = 0x06; 
 418              		.loc 1 140 3 is_stmt 1 view .LVU114
 140:Core/Src/main.c ****   TxData[5] = 0x06; 
 419              		.loc 1 140 13 is_stmt 0 view .LVU115
 420 005a 0522     		movs	r2, #5
ARM GAS  /var/folders/8x/_y6g3dfs0698dfd49y4vcg_w0000gn/T//ccwOt2qK.s 			page 18


 421 005c 1A71     		strb	r2, [r3, #4]
 141:Core/Src/main.c ****   TxData[6] = 0x07; 
 422              		.loc 1 141 3 is_stmt 1 view .LVU116
 141:Core/Src/main.c ****   TxData[6] = 0x07; 
 423              		.loc 1 141 13 is_stmt 0 view .LVU117
 424 005e 0622     		movs	r2, #6
 425 0060 5A71     		strb	r2, [r3, #5]
 142:Core/Src/main.c ****   TxData[7] = 0x08; 
 426              		.loc 1 142 3 is_stmt 1 view .LVU118
 142:Core/Src/main.c ****   TxData[7] = 0x08; 
 427              		.loc 1 142 13 is_stmt 0 view .LVU119
 428 0062 0722     		movs	r2, #7
 429 0064 9A71     		strb	r2, [r3, #6]
 143:Core/Src/main.c **** 
 430              		.loc 1 143 3 is_stmt 1 view .LVU120
 143:Core/Src/main.c **** 
 431              		.loc 1 143 13 is_stmt 0 view .LVU121
 432 0066 DC71     		strb	r4, [r3, #7]
 147:Core/Src/main.c ****   HAL_CAN_Start(&hcan);
 433              		.loc 1 147 3 is_stmt 1 view .LVU122
 434 0068 224C     		ldr	r4, .L31+12
 435 006a 2046     		mov	r0, r4
 436 006c FFF7FEFF 		bl	HAL_CAN_ConfigFilter
 437              	.LVL23:
 148:Core/Src/main.c ****   HAL_CAN_ActivateNotification(&hcan,CAN_IT_RX_FIFO0_MSG_PENDING);
 438              		.loc 1 148 3 view .LVU123
 439 0070 2046     		mov	r0, r4
 440 0072 FFF7FEFF 		bl	HAL_CAN_Start
 441              	.LVL24:
 149:Core/Src/main.c **** 
 442              		.loc 1 149 3 view .LVU124
 443 0076 2946     		mov	r1, r5
 444 0078 2046     		mov	r0, r4
 445 007a FFF7FEFF 		bl	HAL_CAN_ActivateNotification
 446              	.LVL25:
 151:Core/Src/main.c ****   {
 447              		.loc 1 151 3 view .LVU125
 151:Core/Src/main.c ****   {
 448              		.loc 1 151 7 is_stmt 0 view .LVU126
 449 007e 2946     		mov	r1, r5
 450 0080 2046     		mov	r0, r4
 451 0082 FFF7FEFF 		bl	HAL_CAN_ActivateNotification
 452              	.LVL26:
 151:Core/Src/main.c ****   {
 453              		.loc 1 151 6 discriminator 1 view .LVU127
 454 0086 00BB     		cbnz	r0, .L29
 455              	.L25:
 160:Core/Src/main.c ****   {
 456              		.loc 1 160 3 is_stmt 1 view .LVU128
 162:Core/Src/main.c ****     HAL_GPIO_TogglePin(USER_LED_GPIO_Port, USER_LED_Pin);
 457              		.loc 1 162 5 view .LVU129
 458 0088 4FF4FA70 		mov	r0, #500
 459 008c FFF7FEFF 		bl	HAL_Delay
 460              	.LVL27:
 163:Core/Src/main.c ****     
 461              		.loc 1 163 5 view .LVU130
 462 0090 0421     		movs	r1, #4
ARM GAS  /var/folders/8x/_y6g3dfs0698dfd49y4vcg_w0000gn/T//ccwOt2qK.s 			page 19


 463 0092 1948     		ldr	r0, .L31+16
 464 0094 FFF7FEFF 		bl	HAL_GPIO_TogglePin
 465              	.LVL28:
 168:Core/Src/main.c ****     {
 466              		.loc 1 168 5 view .LVU131
 168:Core/Src/main.c ****     {
 467              		.loc 1 168 9 is_stmt 0 view .LVU132
 468 0098 184B     		ldr	r3, .L31+20
 469 009a 154A     		ldr	r2, .L31+8
 470 009c 1349     		ldr	r1, .L31+4
 471 009e 1548     		ldr	r0, .L31+12
 472 00a0 FFF7FEFF 		bl	HAL_CAN_AddTxMessage
 473              	.LVL29:
 168:Core/Src/main.c ****     {
 474              		.loc 1 168 8 discriminator 1 view .LVU133
 475 00a4 98B9     		cbnz	r0, .L30
 175:Core/Src/main.c ****       printf("received message\r");
 476              		.loc 1 175 5 is_stmt 1 view .LVU134
 175:Core/Src/main.c ****       printf("received message\r");
 477              		.loc 1 175 9 is_stmt 0 view .LVU135
 478 00a6 164B     		ldr	r3, .L31+24
 479 00a8 164A     		ldr	r2, .L31+28
 480 00aa 0021     		movs	r1, #0
 481 00ac 1148     		ldr	r0, .L31+12
 482 00ae FFF7FEFF 		bl	HAL_CAN_GetRxMessage
 483              	.LVL30:
 175:Core/Src/main.c ****       printf("received message\r");
 484              		.loc 1 175 8 discriminator 1 view .LVU136
 485 00b2 0446     		mov	r4, r0
 486 00b4 0028     		cmp	r0, #0
 487 00b6 E7D1     		bne	.L25
 488              	.LBB6:
 176:Core/Src/main.c ****       printf("Message length is %ld byte(s)\r\n", RxHeader.DLC);
 489              		.loc 1 176 7 is_stmt 1 view .LVU137
 490 00b8 1348     		ldr	r0, .L31+32
 491 00ba FFF7FEFF 		bl	printf
 492              	.LVL31:
 177:Core/Src/main.c ****       for (uint8_t i = 0; i < 8; i++) {
 493              		.loc 1 177 7 view .LVU138
 494 00be 114B     		ldr	r3, .L31+28
 495 00c0 1969     		ldr	r1, [r3, #16]
 496 00c2 1248     		ldr	r0, .L31+36
 497 00c4 FFF7FEFF 		bl	printf
 498              	.LVL32:
 178:Core/Src/main.c ****         printf("Byte %d: 0x%02X\r\n", i, canRX[i]);
 499              		.loc 1 178 7 view .LVU139
 500              	.LBB7:
 178:Core/Src/main.c ****         printf("Byte %d: 0x%02X\r\n", i, canRX[i]);
 501              		.loc 1 178 12 view .LVU140
 178:Core/Src/main.c ****         printf("Byte %d: 0x%02X\r\n", i, canRX[i]);
 502              		.loc 1 178 7 is_stmt 0 view .LVU141
 503 00c8 0BE0     		b	.L26
 504              	.LVL33:
 505              	.L29:
 178:Core/Src/main.c ****         printf("Byte %d: 0x%02X\r\n", i, canRX[i]);
 506              		.loc 1 178 7 view .LVU142
 507              	.LBE7:
ARM GAS  /var/folders/8x/_y6g3dfs0698dfd49y4vcg_w0000gn/T//ccwOt2qK.s 			page 20


 508              	.LBE6:
 153:Core/Src/main.c ****   }
 509              		.loc 1 153 4 is_stmt 1 view .LVU143
 510 00ca FFF7FEFF 		bl	Error_Handler
 511              	.LVL34:
 512              	.L30:
 170:Core/Src/main.c ****     }
 513              		.loc 1 170 7 view .LVU144
 514 00ce FFF7FEFF 		bl	Error_Handler
 515              	.LVL35:
 516              	.L27:
 517              	.LBB9:
 518              	.LBB8:
 179:Core/Src/main.c ****     }
 519              		.loc 1 179 9 view .LVU145
 520 00d2 0B4B     		ldr	r3, .L31+24
 521 00d4 1A5D     		ldrb	r2, [r3, r4]	@ zero_extendqisi2
 522 00d6 2146     		mov	r1, r4
 523 00d8 0D48     		ldr	r0, .L31+40
 524 00da FFF7FEFF 		bl	printf
 525              	.LVL36:
 178:Core/Src/main.c ****         printf("Byte %d: 0x%02X\r\n", i, canRX[i]);
 526              		.loc 1 178 35 discriminator 3 view .LVU146
 527 00de 0134     		adds	r4, r4, #1
 528              	.LVL37:
 178:Core/Src/main.c ****         printf("Byte %d: 0x%02X\r\n", i, canRX[i]);
 529              		.loc 1 178 35 is_stmt 0 discriminator 3 view .LVU147
 530 00e0 E4B2     		uxtb	r4, r4
 531              	.LVL38:
 532              	.L26:
 178:Core/Src/main.c ****         printf("Byte %d: 0x%02X\r\n", i, canRX[i]);
 533              		.loc 1 178 29 is_stmt 1 discriminator 1 view .LVU148
 534 00e2 072C     		cmp	r4, #7
 535 00e4 F5D9     		bls	.L27
 536 00e6 CFE7     		b	.L25
 537              	.L32:
 538              		.align	2
 539              	.L31:
 540 00e8 00000000 		.word	canfil
 541 00ec 00000000 		.word	TxHeader
 542 00f0 00000000 		.word	TxData
 543 00f4 00000000 		.word	hcan
 544 00f8 00080140 		.word	1073809408
 545 00fc 00000000 		.word	TxMailbox
 546 0100 00000000 		.word	canRX
 547 0104 00000000 		.word	RxHeader
 548 0108 00000000 		.word	.LC0
 549 010c 14000000 		.word	.LC1
 550 0110 34000000 		.word	.LC2
 551              	.LBE8:
 552              	.LBE9:
 553              		.cfi_endproc
 554              	.LFE65:
 556              		.global	canRX
 557              		.section	.bss.canRX,"aw",%nobits
 558              		.align	2
 561              	canRX:
ARM GAS  /var/folders/8x/_y6g3dfs0698dfd49y4vcg_w0000gn/T//ccwOt2qK.s 			page 21


 562 0000 00000000 		.space	8
 562      00000000 
 563              		.global	canMailbox
 564              		.section	.bss.canMailbox,"aw",%nobits
 565              		.align	2
 568              	canMailbox:
 569 0000 00000000 		.space	4
 570              		.global	canfil
 571              		.section	.bss.canfil,"aw",%nobits
 572              		.align	2
 575              	canfil:
 576 0000 00000000 		.space	40
 576      00000000 
 576      00000000 
 576      00000000 
 576      00000000 
 577              		.global	TxMailbox
 578              		.section	.bss.TxMailbox,"aw",%nobits
 579              		.align	2
 582              	TxMailbox:
 583 0000 00000000 		.space	4
 584              		.global	TxData
 585              		.section	.bss.TxData,"aw",%nobits
 586              		.align	2
 589              	TxData:
 590 0000 00000000 		.space	8
 590      00000000 
 591              		.global	RxHeader
 592              		.section	.bss.RxHeader,"aw",%nobits
 593              		.align	2
 596              	RxHeader:
 597 0000 00000000 		.space	28
 597      00000000 
 597      00000000 
 597      00000000 
 597      00000000 
 598              		.global	TxHeader
 599              		.section	.bss.TxHeader,"aw",%nobits
 600              		.align	2
 603              	TxHeader:
 604 0000 00000000 		.space	24
 604      00000000 
 604      00000000 
 604      00000000 
 604      00000000 
 605              		.text
 606              	.Letext0:
 607              		.file 3 "/Applications/ArmGNUToolchain/13.3.rel1/arm-none-eabi/arm-none-eabi/include/machine/_defa
 608              		.file 4 "/Applications/ArmGNUToolchain/13.3.rel1/arm-none-eabi/arm-none-eabi/include/sys/_stdint.h
 609              		.file 5 "Drivers/CMSIS/Device/ST/STM32F1xx/Include/stm32f103xb.h"
 610              		.file 6 "Drivers/CMSIS/Device/ST/STM32F1xx/Include/stm32f1xx.h"
 611              		.file 7 "Drivers/STM32F1xx_HAL_Driver/Inc/stm32f1xx_hal_def.h"
 612              		.file 8 "Drivers/STM32F1xx_HAL_Driver/Inc/stm32f1xx_hal_rcc.h"
 613              		.file 9 "Drivers/STM32F1xx_HAL_Driver/Inc/stm32f1xx_hal_rcc_ex.h"
 614              		.file 10 "Drivers/STM32F1xx_HAL_Driver/Inc/stm32f1xx_hal_dma.h"
 615              		.file 11 "Drivers/STM32F1xx_HAL_Driver/Inc/stm32f1xx_hal_can.h"
 616              		.file 12 "Drivers/STM32F1xx_HAL_Driver/Inc/stm32f1xx_hal_uart.h"
ARM GAS  /var/folders/8x/_y6g3dfs0698dfd49y4vcg_w0000gn/T//ccwOt2qK.s 			page 22


 617              		.file 13 "Core/Inc/can.h"
 618              		.file 14 "Core/Inc/usart.h"
 619              		.file 15 "Drivers/STM32F1xx_HAL_Driver/Inc/stm32f1xx_hal_gpio.h"
 620              		.file 16 "Drivers/STM32F1xx_HAL_Driver/Inc/stm32f1xx_hal.h"
 621              		.file 17 "Core/Inc/usb.h"
 622              		.file 18 "Core/Inc/i2c.h"
 623              		.file 19 "Core/Inc/gpio.h"
 624              		.file 20 "<built-in>"
ARM GAS  /var/folders/8x/_y6g3dfs0698dfd49y4vcg_w0000gn/T//ccwOt2qK.s 			page 23

