ARM GAS  /var/folders/8x/_y6g3dfs0698dfd49y4vcg_w0000gn/T//ccFwF41S.s 			page 1


   1              		.cpu cortex-m3
   2              		.arch armv7-m
   3              		.fpu softvfp
   4              		.eabi_attribute 20, 1
   5              		.eabi_attribute 21, 1
   6              		.eabi_attribute 23, 3
   7              		.eabi_attribute 24, 1
   8              		.eabi_attribute 25, 1
   9              		.eabi_attribute 26, 1
  10              		.eabi_attribute 30, 1
  11              		.eabi_attribute 34, 1
  12              		.eabi_attribute 18, 4
  13              		.file	"main.c"
  14              		.text
  15              	.Ltext0:
  16              		.cfi_sections	.debug_frame
  17              		.file 1 "Core/Src/main.c"
  18              		.section	.text.__io_putchar,"ax",%progbits
  19              		.align	1
  20              		.global	__io_putchar
  21              		.syntax unified
  22              		.thumb
  23              		.thumb_func
  25              	__io_putchar:
  26              	.LVL0:
  27              	.LFB67:
   1:Core/Src/main.c **** /* USER CODE BEGIN Header */
   2:Core/Src/main.c **** /**
   3:Core/Src/main.c ****   ******************************************************************************
   4:Core/Src/main.c ****   * @file           : main.c
   5:Core/Src/main.c ****   * @brief          : Main program body
   6:Core/Src/main.c ****   ******************************************************************************
   7:Core/Src/main.c ****   * @attention
   8:Core/Src/main.c ****   *
   9:Core/Src/main.c ****   * Copyright (c) 2025 STMicroelectronics.
  10:Core/Src/main.c ****   * All rights reserved.
  11:Core/Src/main.c ****   *
  12:Core/Src/main.c ****   * This software is licensed under terms that can be found in the LICENSE file
  13:Core/Src/main.c ****   * in the root directory of this software component.
  14:Core/Src/main.c ****   * If no LICENSE file comes with this software, it is provided AS-IS.
  15:Core/Src/main.c ****   *
  16:Core/Src/main.c ****   ******************************************************************************
  17:Core/Src/main.c ****   */
  18:Core/Src/main.c **** /* USER CODE END Header */
  19:Core/Src/main.c **** /* Includes ------------------------------------------------------------------*/
  20:Core/Src/main.c **** #include "main.h"
  21:Core/Src/main.c **** #include "can.h"
  22:Core/Src/main.c **** #include "i2c.h"
  23:Core/Src/main.c **** #include "usart.h"
  24:Core/Src/main.c **** #include "usb.h"
  25:Core/Src/main.c **** #include "gpio.h"
  26:Core/Src/main.c **** 
  27:Core/Src/main.c **** /* Private includes ----------------------------------------------------------*/
  28:Core/Src/main.c **** /* USER CODE BEGIN Includes */
  29:Core/Src/main.c **** 
  30:Core/Src/main.c **** /* USER CODE END Includes */
  31:Core/Src/main.c **** 
ARM GAS  /var/folders/8x/_y6g3dfs0698dfd49y4vcg_w0000gn/T//ccFwF41S.s 			page 2


  32:Core/Src/main.c **** /* Private typedef -----------------------------------------------------------*/
  33:Core/Src/main.c **** /* USER CODE BEGIN PTD */
  34:Core/Src/main.c **** 
  35:Core/Src/main.c **** /* USER CODE END PTD */
  36:Core/Src/main.c **** 
  37:Core/Src/main.c **** /* Private define ------------------------------------------------------------*/
  38:Core/Src/main.c **** /* USER CODE BEGIN PD */
  39:Core/Src/main.c **** 
  40:Core/Src/main.c **** /* USER CODE END PD */
  41:Core/Src/main.c **** 
  42:Core/Src/main.c **** /* Private macro -------------------------------------------------------------*/
  43:Core/Src/main.c **** /* USER CODE BEGIN PM */
  44:Core/Src/main.c **** 
  45:Core/Src/main.c **** /* USER CODE END PM */
  46:Core/Src/main.c **** 
  47:Core/Src/main.c **** /* Private variables ---------------------------------------------------------*/
  48:Core/Src/main.c **** 
  49:Core/Src/main.c **** /* USER CODE BEGIN PV */
  50:Core/Src/main.c **** 
  51:Core/Src/main.c **** 
  52:Core/Src/main.c **** 
  53:Core/Src/main.c **** CAN_TxHeaderTypeDef   TxHeader;
  54:Core/Src/main.c **** CAN_RxHeaderTypeDef   RxHeader; //CAN Bus Transmit Header
  55:Core/Src/main.c **** uint8_t               TxData[8];
  56:Core/Src/main.c **** uint32_t              TxMailbox;
  57:Core/Src/main.c **** CAN_FilterTypeDef canfil; //CAN Bus Filter
  58:Core/Src/main.c **** uint32_t canMailbox; //CAN Bus Mail box variable
  59:Core/Src/main.c **** 
  60:Core/Src/main.c **** uint8_t canRX[8] = {0x0,0x0,0x0,0x0,0x0,0x0,0x0,0x0};  //CAN Bus Receive Buffer
  61:Core/Src/main.c **** 
  62:Core/Src/main.c **** 
  63:Core/Src/main.c **** 
  64:Core/Src/main.c **** 
  65:Core/Src/main.c **** /* USER CODE END PV */
  66:Core/Src/main.c **** 
  67:Core/Src/main.c **** /* Private function prototypes -----------------------------------------------*/
  68:Core/Src/main.c **** void SystemClock_Config(void);
  69:Core/Src/main.c **** /* USER CODE BEGIN PFP */
  70:Core/Src/main.c **** #define PUTCHAR_PROTOTYPE int __io_putchar(int ch)
  71:Core/Src/main.c **** 
  72:Core/Src/main.c **** /* USER CODE END PFP */
  73:Core/Src/main.c **** 
  74:Core/Src/main.c **** /* Private user code ---------------------------------------------------------*/
  75:Core/Src/main.c **** /* USER CODE BEGIN 0 */
  76:Core/Src/main.c **** 
  77:Core/Src/main.c **** 
  78:Core/Src/main.c **** 
  79:Core/Src/main.c **** 
  80:Core/Src/main.c **** /* USER CODE END 0 */
  81:Core/Src/main.c **** 
  82:Core/Src/main.c **** /**
  83:Core/Src/main.c ****   * @brief  The application entry point.
  84:Core/Src/main.c ****   * @retval int
  85:Core/Src/main.c ****   */
  86:Core/Src/main.c **** int main(void)
  87:Core/Src/main.c **** {
  88:Core/Src/main.c **** 
ARM GAS  /var/folders/8x/_y6g3dfs0698dfd49y4vcg_w0000gn/T//ccFwF41S.s 			page 3


  89:Core/Src/main.c ****   /* USER CODE BEGIN 1 */
  90:Core/Src/main.c **** 
  91:Core/Src/main.c ****   /* USER CODE END 1 */
  92:Core/Src/main.c **** 
  93:Core/Src/main.c ****   /* MCU Configuration--------------------------------------------------------*/
  94:Core/Src/main.c **** 
  95:Core/Src/main.c ****   /* Reset of all peripherals, Initializes the Flash interface and the Systick. */
  96:Core/Src/main.c ****   HAL_Init();
  97:Core/Src/main.c **** 
  98:Core/Src/main.c ****   /* USER CODE BEGIN Init */
  99:Core/Src/main.c **** 
 100:Core/Src/main.c ****   /* USER CODE END Init */
 101:Core/Src/main.c **** 
 102:Core/Src/main.c ****   /* Configure the system clock */
 103:Core/Src/main.c ****   SystemClock_Config();
 104:Core/Src/main.c **** 
 105:Core/Src/main.c ****   /* USER CODE BEGIN SysInit */
 106:Core/Src/main.c **** 
 107:Core/Src/main.c ****   /* USER CODE END SysInit */
 108:Core/Src/main.c **** 
 109:Core/Src/main.c ****   /* Initialize all configured peripherals */
 110:Core/Src/main.c ****   MX_GPIO_Init();
 111:Core/Src/main.c ****   MX_CAN_Init();
 112:Core/Src/main.c ****   MX_I2C1_Init();
 113:Core/Src/main.c ****   MX_USART1_UART_Init();
 114:Core/Src/main.c ****   MX_USB_PCD_Init();
 115:Core/Src/main.c ****   /* USER CODE BEGIN 2 */
 116:Core/Src/main.c **** 
 117:Core/Src/main.c ****   CAN_FilterTypeDef canfilterconfig;
 118:Core/Src/main.c **** 
 119:Core/Src/main.c **** 
 120:Core/Src/main.c ****   canfil.FilterBank = 0;
 121:Core/Src/main.c ****   canfil.FilterMode = CAN_FILTERMODE_IDMASK;
 122:Core/Src/main.c ****   canfil.FilterFIFOAssignment = CAN_RX_FIFO0;
 123:Core/Src/main.c ****   canfil.FilterIdHigh = 0;
 124:Core/Src/main.c ****   canfil.FilterIdLow = 0;
 125:Core/Src/main.c ****   canfil.FilterMaskIdHigh = 0;
 126:Core/Src/main.c ****   canfil.FilterMaskIdLow = 0;
 127:Core/Src/main.c ****   canfil.FilterScale = CAN_FILTERSCALE_32BIT;
 128:Core/Src/main.c ****   canfil.FilterActivation = ENABLE;
 129:Core/Src/main.c ****   canfil.SlaveStartFilterBank = 14;
 130:Core/Src/main.c **** 
 131:Core/Src/main.c ****   TxHeader.IDE = CAN_ID_STD;
 132:Core/Src/main.c ****   TxHeader.StdId = 0x446;
 133:Core/Src/main.c ****   TxHeader.RTR = CAN_RTR_DATA;
 134:Core/Src/main.c ****   TxHeader.DLC = 8;
 135:Core/Src/main.c **** 
 136:Core/Src/main.c ****   TxData[0] = 0x01;  
 137:Core/Src/main.c ****   TxData[1] = 0x02; 
 138:Core/Src/main.c ****   TxData[2] = 0x03; 
 139:Core/Src/main.c ****   TxData[3] = 0x04; 
 140:Core/Src/main.c ****   TxData[4] = 0x05; 
 141:Core/Src/main.c ****   TxData[5] = 0x06; 
 142:Core/Src/main.c ****   TxData[6] = 0x07; 
 143:Core/Src/main.c ****   TxData[7] = 0x08; 
 144:Core/Src/main.c **** 
 145:Core/Src/main.c ****   //char msg[] = "Hello, UART!\r\n";
ARM GAS  /var/folders/8x/_y6g3dfs0698dfd49y4vcg_w0000gn/T//ccFwF41S.s 			page 4


 146:Core/Src/main.c **** 
 147:Core/Src/main.c ****   HAL_CAN_ConfigFilter(&hcan,&canfil);
 148:Core/Src/main.c ****   HAL_CAN_Start(&hcan);
 149:Core/Src/main.c ****   HAL_CAN_ActivateNotification(&hcan,CAN_IT_RX_FIFO0_MSG_PENDING);
 150:Core/Src/main.c **** 
 151:Core/Src/main.c ****   if (HAL_CAN_ActivateNotification(&hcan, CAN_IT_RX_FIFO0_MSG_PENDING) != HAL_OK)
 152:Core/Src/main.c ****   {
 153:Core/Src/main.c **** 	  Error_Handler();
 154:Core/Src/main.c ****   }
 155:Core/Src/main.c **** 
 156:Core/Src/main.c ****   /* USER CODE END 2 */
 157:Core/Src/main.c **** 
 158:Core/Src/main.c ****   /* Infinite loop */
 159:Core/Src/main.c ****   /* USER CODE BEGIN WHILE */
 160:Core/Src/main.c ****   while (1)
 161:Core/Src/main.c ****   {
 162:Core/Src/main.c ****     
 163:Core/Src/main.c ****     
 164:Core/Src/main.c ****     // uint32_t free_mailboxes = HAL_CAN_GetTxMailboxesFreeLevel(&hcan);
 165:Core/Src/main.c ****     // printf("Free Mailboxes: %lu\n", free_mailboxes);
 166:Core/Src/main.c ****     
 167:Core/Src/main.c ****     // if (HAL_CAN_GetRxMessage(&hcan, CAN_RX_FIFO0, &RxHeader, canRX) == HAL_OK) {
 168:Core/Src/main.c ****     //   printf("received message\r");
 169:Core/Src/main.c ****     //   printf("Message length is %ld byte(s)\r\n", RxHeader.DLC);
 170:Core/Src/main.c ****     //   for (uint8_t i = 0; i < 8; i++) {
 171:Core/Src/main.c ****     //     printf("Byte %d: 0x%02X\r\n", i, canRX[i]);
 172:Core/Src/main.c ****     //   }
 173:Core/Src/main.c ****     // }
 174:Core/Src/main.c **** 
 175:Core/Src/main.c ****     /* USER CODE END WHILE */
 176:Core/Src/main.c **** 
 177:Core/Src/main.c ****     /* USER CODE BEGIN 3 */
 178:Core/Src/main.c ****   }
 179:Core/Src/main.c ****   /* USER CODE END 3 */
 180:Core/Src/main.c **** }
 181:Core/Src/main.c **** 
 182:Core/Src/main.c **** /**
 183:Core/Src/main.c ****   * @brief System Clock Configuration
 184:Core/Src/main.c ****   * @retval None
 185:Core/Src/main.c ****   */
 186:Core/Src/main.c **** void SystemClock_Config(void)
 187:Core/Src/main.c **** {
 188:Core/Src/main.c ****   RCC_OscInitTypeDef RCC_OscInitStruct = {0};
 189:Core/Src/main.c ****   RCC_ClkInitTypeDef RCC_ClkInitStruct = {0};
 190:Core/Src/main.c ****   RCC_PeriphCLKInitTypeDef PeriphClkInit = {0};
 191:Core/Src/main.c **** 
 192:Core/Src/main.c ****   /** Initializes the RCC Oscillators according to the specified parameters
 193:Core/Src/main.c ****   * in the RCC_OscInitTypeDef structure.
 194:Core/Src/main.c ****   */
 195:Core/Src/main.c ****   RCC_OscInitStruct.OscillatorType = RCC_OSCILLATORTYPE_HSE;
 196:Core/Src/main.c ****   RCC_OscInitStruct.HSEState = RCC_HSE_ON;
 197:Core/Src/main.c ****   RCC_OscInitStruct.HSEPredivValue = RCC_HSE_PREDIV_DIV2;
 198:Core/Src/main.c ****   RCC_OscInitStruct.HSIState = RCC_HSI_ON;
 199:Core/Src/main.c ****   RCC_OscInitStruct.PLL.PLLState = RCC_PLL_ON;
 200:Core/Src/main.c ****   RCC_OscInitStruct.PLL.PLLSource = RCC_PLLSOURCE_HSE;
 201:Core/Src/main.c ****   RCC_OscInitStruct.PLL.PLLMUL = RCC_PLL_MUL9;
 202:Core/Src/main.c ****   if (HAL_RCC_OscConfig(&RCC_OscInitStruct) != HAL_OK)
ARM GAS  /var/folders/8x/_y6g3dfs0698dfd49y4vcg_w0000gn/T//ccFwF41S.s 			page 5


 203:Core/Src/main.c ****   {
 204:Core/Src/main.c ****     Error_Handler();
 205:Core/Src/main.c ****   }
 206:Core/Src/main.c **** 
 207:Core/Src/main.c ****   /** Initializes the CPU, AHB and APB buses clocks
 208:Core/Src/main.c ****   */
 209:Core/Src/main.c ****   RCC_ClkInitStruct.ClockType = RCC_CLOCKTYPE_HCLK|RCC_CLOCKTYPE_SYSCLK
 210:Core/Src/main.c ****                               |RCC_CLOCKTYPE_PCLK1|RCC_CLOCKTYPE_PCLK2;
 211:Core/Src/main.c ****   RCC_ClkInitStruct.SYSCLKSource = RCC_SYSCLKSOURCE_PLLCLK;
 212:Core/Src/main.c ****   RCC_ClkInitStruct.AHBCLKDivider = RCC_SYSCLK_DIV1;
 213:Core/Src/main.c ****   RCC_ClkInitStruct.APB1CLKDivider = RCC_HCLK_DIV2;
 214:Core/Src/main.c ****   RCC_ClkInitStruct.APB2CLKDivider = RCC_HCLK_DIV1;
 215:Core/Src/main.c **** 
 216:Core/Src/main.c ****   if (HAL_RCC_ClockConfig(&RCC_ClkInitStruct, FLASH_LATENCY_2) != HAL_OK)
 217:Core/Src/main.c ****   {
 218:Core/Src/main.c ****     Error_Handler();
 219:Core/Src/main.c ****   }
 220:Core/Src/main.c ****   PeriphClkInit.PeriphClockSelection = RCC_PERIPHCLK_USB;
 221:Core/Src/main.c ****   PeriphClkInit.UsbClockSelection = RCC_USBCLKSOURCE_PLL_DIV1_5;
 222:Core/Src/main.c ****   if (HAL_RCCEx_PeriphCLKConfig(&PeriphClkInit) != HAL_OK)
 223:Core/Src/main.c ****   {
 224:Core/Src/main.c ****     Error_Handler();
 225:Core/Src/main.c ****   }
 226:Core/Src/main.c **** }
 227:Core/Src/main.c **** 
 228:Core/Src/main.c **** /* USER CODE BEGIN 4 */
 229:Core/Src/main.c **** PUTCHAR_PROTOTYPE
 230:Core/Src/main.c **** {
  28              		.loc 1 230 1 view -0
  29              		.cfi_startproc
  30              		@ args = 0, pretend = 0, frame = 8
  31              		@ frame_needed = 0, uses_anonymous_args = 0
  32              		.loc 1 230 1 is_stmt 0 view .LVU1
  33 0000 00B5     		push	{lr}
  34              	.LCFI0:
  35              		.cfi_def_cfa_offset 4
  36              		.cfi_offset 14, -4
  37 0002 83B0     		sub	sp, sp, #12
  38              	.LCFI1:
  39              		.cfi_def_cfa_offset 16
  40 0004 0190     		str	r0, [sp, #4]
 231:Core/Src/main.c ****   /* Place your implementation of fputc here */
 232:Core/Src/main.c ****   /* e.g. write a character to the USART1 and Loop until the end of transmission */
 233:Core/Src/main.c ****   HAL_UART_Transmit(&huart1, (uint8_t *)&ch, 1, 0xFFFF);
  41              		.loc 1 233 3 is_stmt 1 view .LVU2
  42 0006 4FF6FF73 		movw	r3, #65535
  43 000a 0122     		movs	r2, #1
  44 000c 01A9     		add	r1, sp, #4
  45 000e 0348     		ldr	r0, .L3
  46              	.LVL1:
  47              		.loc 1 233 3 is_stmt 0 view .LVU3
  48 0010 FFF7FEFF 		bl	HAL_UART_Transmit
  49              	.LVL2:
 234:Core/Src/main.c **** 
 235:Core/Src/main.c ****   return ch;
  50              		.loc 1 235 3 is_stmt 1 view .LVU4
 236:Core/Src/main.c **** }
ARM GAS  /var/folders/8x/_y6g3dfs0698dfd49y4vcg_w0000gn/T//ccFwF41S.s 			page 6


  51              		.loc 1 236 1 is_stmt 0 view .LVU5
  52 0014 0198     		ldr	r0, [sp, #4]
  53 0016 03B0     		add	sp, sp, #12
  54              	.LCFI2:
  55              		.cfi_def_cfa_offset 4
  56              		@ sp needed
  57 0018 5DF804FB 		ldr	pc, [sp], #4
  58              	.L4:
  59              		.align	2
  60              	.L3:
  61 001c 00000000 		.word	huart1
  62              		.cfi_endproc
  63              	.LFE67:
  65              		.section	.text.send_uart_message,"ax",%progbits
  66              		.align	1
  67              		.global	send_uart_message
  68              		.syntax unified
  69              		.thumb
  70              		.thumb_func
  72              	send_uart_message:
  73              	.LVL3:
  74              	.LFB68:
 237:Core/Src/main.c **** 
 238:Core/Src/main.c **** void send_uart_message(char *message) {
  75              		.loc 1 238 39 is_stmt 1 view -0
  76              		.cfi_startproc
  77              		@ args = 0, pretend = 0, frame = 0
  78              		@ frame_needed = 0, uses_anonymous_args = 0
  79              		.loc 1 238 39 is_stmt 0 view .LVU7
  80 0000 10B5     		push	{r4, lr}
  81              	.LCFI3:
  82              		.cfi_def_cfa_offset 8
  83              		.cfi_offset 4, -8
  84              		.cfi_offset 14, -4
  85 0002 0446     		mov	r4, r0
 239:Core/Src/main.c ****     HAL_UART_Transmit(&huart1, (uint8_t *)message, strlen(message), HAL_MAX_DELAY);
  86              		.loc 1 239 5 is_stmt 1 view .LVU8
  87              		.loc 1 239 52 is_stmt 0 view .LVU9
  88 0004 FFF7FEFF 		bl	strlen
  89              	.LVL4:
  90              		.loc 1 239 5 discriminator 1 view .LVU10
  91 0008 4FF0FF33 		mov	r3, #-1
  92 000c 82B2     		uxth	r2, r0
  93 000e 2146     		mov	r1, r4
  94 0010 0148     		ldr	r0, .L7
  95 0012 FFF7FEFF 		bl	HAL_UART_Transmit
  96              	.LVL5:
 240:Core/Src/main.c **** }
  97              		.loc 1 240 1 view .LVU11
  98 0016 10BD     		pop	{r4, pc}
  99              	.LVL6:
 100              	.L8:
 101              		.loc 1 240 1 view .LVU12
 102              		.align	2
 103              	.L7:
 104 0018 00000000 		.word	huart1
 105              		.cfi_endproc
ARM GAS  /var/folders/8x/_y6g3dfs0698dfd49y4vcg_w0000gn/T//ccFwF41S.s 			page 7


 106              	.LFE68:
 108              		.section	.rodata.printRPM.str1.4,"aMS",%progbits,1
 109              		.align	2
 110              	.LC0:
 111 0000 52504D3A 		.ascii	"RPM: %d\012\000"
 111      2025640A 
 111      00
 112              		.section	.text.printRPM,"ax",%progbits
 113              		.align	1
 114              		.global	printRPM
 115              		.syntax unified
 116              		.thumb
 117              		.thumb_func
 119              	printRPM:
 120              	.LVL7:
 121              	.LFB70:
 241:Core/Src/main.c **** 
 242:Core/Src/main.c **** void HAL_CAN_RxFifo0MsgPendingCallback(CAN_HandleTypeDef *hcan1)
 243:Core/Src/main.c **** {
 244:Core/Src/main.c ****   //printf("Recieved CANBUS message...\r\n");
 245:Core/Src/main.c **** 	if (HAL_CAN_GetRxMessage(hcan1, CAN_RX_FIFO0, &RxHeader, canRX) != HAL_OK)
 246:Core/Src/main.c ****   {
 247:Core/Src/main.c ****     //printf("CAN Message Read Failed. HAL ERROR... \r\n");
 248:Core/Src/main.c ****   }
 249:Core/Src/main.c ****   else
 250:Core/Src/main.c ****   {
 251:Core/Src/main.c **** 
 252:Core/Src/main.c ****     // Get header info...
 253:Core/Src/main.c ****     if (RxHeader.IDE == CAN_ID_STD)
 254:Core/Src/main.c ****     {
 255:Core/Src/main.c ****       printf("Message has standard ID type...\r\n");
 256:Core/Src/main.c ****       printf("Message ID:\t%#lx\r\n",RxHeader.StdId);
 257:Core/Src/main.c **** 
 258:Core/Src/main.c ****     }
 259:Core/Src/main.c ****     else if (RxHeader.IDE == CAN_ID_EXT)
 260:Core/Src/main.c ****     {
 261:Core/Src/main.c ****       printf("Message has extended ID type...\r\n");
 262:Core/Src/main.c ****       printf("Message ID:\t%#lx\r\n",RxHeader.ExtId);
 263:Core/Src/main.c **** 
 264:Core/Src/main.c ****       if(RxHeader.ExtId == 0x0CF11E05){
 265:Core/Src/main.c ****         printRPM(canRX[0], canRX[1]);
 266:Core/Src/main.c ****       }
 267:Core/Src/main.c ****     }
 268:Core/Src/main.c ****     else
 269:Core/Src/main.c ****     {
 270:Core/Src/main.c ****       //printf("ERROR: Unknown IDE type\r\n");
 271:Core/Src/main.c ****       return;
 272:Core/Src/main.c ****     }
 273:Core/Src/main.c **** 
 274:Core/Src/main.c ****     // Get data... 
 275:Core/Src/main.c ****     // If len(data) < 8 (less than 64 bytes) does the data fill from the front or the back of the a
 276:Core/Src/main.c ****     printf("Message length is %ld byte(s)\n", RxHeader.DLC);
 277:Core/Src/main.c ****     for (uint8_t i = 0; i < 8; i++) {
 278:Core/Src/main.c ****         printf("Byte %d: 0x%02X\r\n", i, canRX[i]);
 279:Core/Src/main.c ****     }
 280:Core/Src/main.c **** 
 281:Core/Src/main.c ****   } 
ARM GAS  /var/folders/8x/_y6g3dfs0698dfd49y4vcg_w0000gn/T//ccFwF41S.s 			page 8


 282:Core/Src/main.c **** 
 283:Core/Src/main.c **** }
 284:Core/Src/main.c **** void printRPM(uint8_t LSB, uint8_t MSB){
 122              		.loc 1 284 40 is_stmt 1 view -0
 123              		.cfi_startproc
 124              		@ args = 0, pretend = 0, frame = 0
 125              		@ frame_needed = 0, uses_anonymous_args = 0
 126              		.loc 1 284 40 is_stmt 0 view .LVU14
 127 0000 08B5     		push	{r3, lr}
 128              	.LCFI4:
 129              		.cfi_def_cfa_offset 8
 130              		.cfi_offset 3, -8
 131              		.cfi_offset 14, -4
 285:Core/Src/main.c ****   int RPM; 
 132              		.loc 1 285 3 is_stmt 1 view .LVU15
 286:Core/Src/main.c ****   RPM = MSB * 256 + LSB; 
 133              		.loc 1 286 3 view .LVU16
 134              	.LVL8:
 287:Core/Src/main.c ****   printf("RPM: %d\n", RPM); 
 135              		.loc 1 287 3 view .LVU17
 136 0002 00EB0121 		add	r1, r0, r1, lsl #8
 137              	.LVL9:
 138              		.loc 1 287 3 is_stmt 0 view .LVU18
 139 0006 0248     		ldr	r0, .L11
 140              	.LVL10:
 141              		.loc 1 287 3 view .LVU19
 142 0008 FFF7FEFF 		bl	printf
 143              	.LVL11:
 288:Core/Src/main.c **** }
 144              		.loc 1 288 1 view .LVU20
 145 000c 08BD     		pop	{r3, pc}
 146              	.L12:
 147 000e 00BF     		.align	2
 148              	.L11:
 149 0010 00000000 		.word	.LC0
 150              		.cfi_endproc
 151              	.LFE70:
 153              		.section	.rodata.HAL_CAN_RxFifo0MsgPendingCallback.str1.4,"aMS",%progbits,1
 154              		.align	2
 155              	.LC1:
 156 0000 4D657373 		.ascii	"Message has standard ID type...\015\000"
 156      61676520 
 156      68617320 
 156      7374616E 
 156      64617264 
 157 0021 000000   		.align	2
 158              	.LC2:
 159 0024 4D657373 		.ascii	"Message ID:\011%#lx\015\012\000"
 159      61676520 
 159      49443A09 
 159      25236C78 
 159      0D0A00
 160 0037 00       		.align	2
 161              	.LC3:
 162 0038 4D657373 		.ascii	"Message has extended ID type...\015\000"
 162      61676520 
 162      68617320 
ARM GAS  /var/folders/8x/_y6g3dfs0698dfd49y4vcg_w0000gn/T//ccFwF41S.s 			page 9


 162      65787465 
 162      6E646564 
 163 0059 000000   		.align	2
 164              	.LC4:
 165 005c 4D657373 		.ascii	"Message length is %ld byte(s)\012\000"
 165      61676520 
 165      6C656E67 
 165      74682069 
 165      7320256C 
 166 007b 00       		.align	2
 167              	.LC5:
 168 007c 42797465 		.ascii	"Byte %d: 0x%02X\015\012\000"
 168      2025643A 
 168      20307825 
 168      3032580D 
 168      0A00
 169              		.section	.text.HAL_CAN_RxFifo0MsgPendingCallback,"ax",%progbits
 170              		.align	1
 171              		.global	HAL_CAN_RxFifo0MsgPendingCallback
 172              		.syntax unified
 173              		.thumb
 174              		.thumb_func
 176              	HAL_CAN_RxFifo0MsgPendingCallback:
 177              	.LVL12:
 178              	.LFB69:
 243:Core/Src/main.c ****   //printf("Recieved CANBUS message...\r\n");
 179              		.loc 1 243 1 is_stmt 1 view -0
 180              		.cfi_startproc
 181              		@ args = 0, pretend = 0, frame = 0
 182              		@ frame_needed = 0, uses_anonymous_args = 0
 243:Core/Src/main.c ****   //printf("Recieved CANBUS message...\r\n");
 183              		.loc 1 243 1 is_stmt 0 view .LVU22
 184 0000 38B5     		push	{r3, r4, r5, lr}
 185              	.LCFI5:
 186              		.cfi_def_cfa_offset 16
 187              		.cfi_offset 3, -16
 188              		.cfi_offset 4, -12
 189              		.cfi_offset 5, -8
 190              		.cfi_offset 14, -4
 245:Core/Src/main.c ****   {
 191              		.loc 1 245 2 is_stmt 1 view .LVU23
 245:Core/Src/main.c ****   {
 192              		.loc 1 245 6 is_stmt 0 view .LVU24
 193 0002 1C4B     		ldr	r3, .L21
 194 0004 1C4A     		ldr	r2, .L21+4
 195 0006 0021     		movs	r1, #0
 196 0008 FFF7FEFF 		bl	HAL_CAN_GetRxMessage
 197              	.LVL13:
 245:Core/Src/main.c ****   {
 198              		.loc 1 245 5 discriminator 1 view .LVU25
 199 000c 0028     		cmp	r0, #0
 200 000e 2FD1     		bne	.L13
 201 0010 0446     		mov	r4, r0
 202              	.LBB4:
 253:Core/Src/main.c ****     {
 203              		.loc 1 253 5 is_stmt 1 view .LVU26
 253:Core/Src/main.c ****     {
ARM GAS  /var/folders/8x/_y6g3dfs0698dfd49y4vcg_w0000gn/T//ccFwF41S.s 			page 10


 204              		.loc 1 253 17 is_stmt 0 view .LVU27
 205 0012 194B     		ldr	r3, .L21+4
 206 0014 9B68     		ldr	r3, [r3, #8]
 253:Core/Src/main.c ****     {
 207              		.loc 1 253 8 view .LVU28
 208 0016 9BB1     		cbz	r3, .L20
 259:Core/Src/main.c ****     {
 209              		.loc 1 259 10 is_stmt 1 view .LVU29
 259:Core/Src/main.c ****     {
 210              		.loc 1 259 13 is_stmt 0 view .LVU30
 211 0018 042B     		cmp	r3, #4
 212 001a 29D1     		bne	.L13
 213              	.LBB5:
 261:Core/Src/main.c ****       printf("Message ID:\t%#lx\r\n",RxHeader.ExtId);
 214              		.loc 1 261 7 is_stmt 1 view .LVU31
 215 001c 1748     		ldr	r0, .L21+8
 216 001e FFF7FEFF 		bl	puts
 217              	.LVL14:
 262:Core/Src/main.c **** 
 218              		.loc 1 262 7 view .LVU32
 219 0022 154D     		ldr	r5, .L21+4
 220 0024 6968     		ldr	r1, [r5, #4]
 221 0026 1648     		ldr	r0, .L21+12
 222 0028 FFF7FEFF 		bl	printf
 223              	.LVL15:
 264:Core/Src/main.c ****         printRPM(canRX[0], canRX[1]);
 224              		.loc 1 264 7 view .LVU33
 264:Core/Src/main.c ****         printRPM(canRX[0], canRX[1]);
 225              		.loc 1 264 18 is_stmt 0 view .LVU34
 226 002c 6A68     		ldr	r2, [r5, #4]
 264:Core/Src/main.c ****         printRPM(canRX[0], canRX[1]);
 227              		.loc 1 264 9 view .LVU35
 228 002e 154B     		ldr	r3, .L21+16
 229 0030 9A42     		cmp	r2, r3
 230 0032 0DD1     		bne	.L16
 231              	.LBB6:
 265:Core/Src/main.c ****       }
 232              		.loc 1 265 9 is_stmt 1 view .LVU36
 265:Core/Src/main.c ****       }
 233              		.loc 1 265 23 is_stmt 0 view .LVU37
 234 0034 0F4B     		ldr	r3, .L21
 265:Core/Src/main.c ****       }
 235              		.loc 1 265 9 view .LVU38
 236 0036 5978     		ldrb	r1, [r3, #1]	@ zero_extendqisi2
 237 0038 1878     		ldrb	r0, [r3]	@ zero_extendqisi2
 238 003a FFF7FEFF 		bl	printRPM
 239              	.LVL16:
 240 003e 07E0     		b	.L16
 241              	.L20:
 242              	.LBE6:
 243              	.LBE5:
 244              	.LBB7:
 255:Core/Src/main.c ****       printf("Message ID:\t%#lx\r\n",RxHeader.StdId);
 245              		.loc 1 255 7 is_stmt 1 view .LVU39
 246 0040 1148     		ldr	r0, .L21+20
 247 0042 FFF7FEFF 		bl	puts
 248              	.LVL17:
ARM GAS  /var/folders/8x/_y6g3dfs0698dfd49y4vcg_w0000gn/T//ccFwF41S.s 			page 11


 256:Core/Src/main.c **** 
 249              		.loc 1 256 7 view .LVU40
 250 0046 0C4B     		ldr	r3, .L21+4
 251 0048 1968     		ldr	r1, [r3]
 252 004a 0D48     		ldr	r0, .L21+12
 253 004c FFF7FEFF 		bl	printf
 254              	.LVL18:
 255              	.L16:
 256              	.LBE7:
 276:Core/Src/main.c ****     for (uint8_t i = 0; i < 8; i++) {
 257              		.loc 1 276 5 view .LVU41
 258 0050 094B     		ldr	r3, .L21+4
 259 0052 1969     		ldr	r1, [r3, #16]
 260 0054 0D48     		ldr	r0, .L21+24
 261 0056 FFF7FEFF 		bl	printf
 262              	.LVL19:
 277:Core/Src/main.c ****         printf("Byte %d: 0x%02X\r\n", i, canRX[i]);
 263              		.loc 1 277 5 view .LVU42
 264              	.LBB8:
 277:Core/Src/main.c ****         printf("Byte %d: 0x%02X\r\n", i, canRX[i]);
 265              		.loc 1 277 10 view .LVU43
 277:Core/Src/main.c ****         printf("Byte %d: 0x%02X\r\n", i, canRX[i]);
 266              		.loc 1 277 5 is_stmt 0 view .LVU44
 267 005a 07E0     		b	.L17
 268              	.LVL20:
 269              	.L18:
 278:Core/Src/main.c ****     }
 270              		.loc 1 278 9 is_stmt 1 view .LVU45
 271 005c 054B     		ldr	r3, .L21
 272 005e 1A5D     		ldrb	r2, [r3, r4]	@ zero_extendqisi2
 273 0060 2146     		mov	r1, r4
 274 0062 0B48     		ldr	r0, .L21+28
 275 0064 FFF7FEFF 		bl	printf
 276              	.LVL21:
 277:Core/Src/main.c ****         printf("Byte %d: 0x%02X\r\n", i, canRX[i]);
 277              		.loc 1 277 33 discriminator 3 view .LVU46
 278 0068 0134     		adds	r4, r4, #1
 279              	.LVL22:
 277:Core/Src/main.c ****         printf("Byte %d: 0x%02X\r\n", i, canRX[i]);
 280              		.loc 1 277 33 is_stmt 0 discriminator 3 view .LVU47
 281 006a E4B2     		uxtb	r4, r4
 282              	.LVL23:
 283              	.L17:
 277:Core/Src/main.c ****         printf("Byte %d: 0x%02X\r\n", i, canRX[i]);
 284              		.loc 1 277 27 is_stmt 1 discriminator 1 view .LVU48
 285 006c 072C     		cmp	r4, #7
 286 006e F5D9     		bls	.L18
 287              	.LVL24:
 288              	.L13:
 277:Core/Src/main.c ****         printf("Byte %d: 0x%02X\r\n", i, canRX[i]);
 289              		.loc 1 277 27 is_stmt 0 discriminator 1 view .LVU49
 290              	.LBE8:
 291              	.LBE4:
 283:Core/Src/main.c **** void printRPM(uint8_t LSB, uint8_t MSB){
 292              		.loc 1 283 1 view .LVU50
 293 0070 38BD     		pop	{r3, r4, r5, pc}
 294              	.L22:
ARM GAS  /var/folders/8x/_y6g3dfs0698dfd49y4vcg_w0000gn/T//ccFwF41S.s 			page 12


 295 0072 00BF     		.align	2
 296              	.L21:
 297 0074 00000000 		.word	canRX
 298 0078 00000000 		.word	RxHeader
 299 007c 38000000 		.word	.LC3
 300 0080 24000000 		.word	.LC2
 301 0084 051EF10C 		.word	217128453
 302 0088 00000000 		.word	.LC1
 303 008c 5C000000 		.word	.LC4
 304 0090 7C000000 		.word	.LC5
 305              		.cfi_endproc
 306              	.LFE69:
 308              		.section	.text.Error_Handler,"ax",%progbits
 309              		.align	1
 310              		.global	Error_Handler
 311              		.syntax unified
 312              		.thumb
 313              		.thumb_func
 315              	Error_Handler:
 316              	.LFB71:
 289:Core/Src/main.c **** 
 290:Core/Src/main.c **** 
 291:Core/Src/main.c **** /* USER CODE END 4 */
 292:Core/Src/main.c **** 
 293:Core/Src/main.c **** /**
 294:Core/Src/main.c ****   * @brief  This function is executed in case of error occurrence.
 295:Core/Src/main.c ****   * @retval None
 296:Core/Src/main.c ****   */
 297:Core/Src/main.c **** void Error_Handler(void)
 298:Core/Src/main.c **** {
 317              		.loc 1 298 1 is_stmt 1 view -0
 318              		.cfi_startproc
 319              		@ Volatile: function does not return.
 320              		@ args = 0, pretend = 0, frame = 0
 321              		@ frame_needed = 0, uses_anonymous_args = 0
 322 0000 08B5     		push	{r3, lr}
 323              	.LCFI6:
 324              		.cfi_def_cfa_offset 8
 325              		.cfi_offset 3, -8
 326              		.cfi_offset 14, -4
 299:Core/Src/main.c ****   /* USER CODE BEGIN Error_Handler_Debug */
 300:Core/Src/main.c ****   /* User can add his own implementation to report the HAL error return state */
 301:Core/Src/main.c ****   __disable_irq();
 327              		.loc 1 301 3 view .LVU52
 328              	.LBB9:
 329              	.LBI9:
 330              		.file 2 "Drivers/CMSIS/Include/cmsis_gcc.h"
   1:Drivers/CMSIS/Include/cmsis_gcc.h **** /**************************************************************************//**
   2:Drivers/CMSIS/Include/cmsis_gcc.h ****  * @file     cmsis_gcc.h
   3:Drivers/CMSIS/Include/cmsis_gcc.h ****  * @brief    CMSIS compiler GCC header file
   4:Drivers/CMSIS/Include/cmsis_gcc.h ****  * @version  V5.0.4
   5:Drivers/CMSIS/Include/cmsis_gcc.h ****  * @date     09. April 2018
   6:Drivers/CMSIS/Include/cmsis_gcc.h ****  ******************************************************************************/
   7:Drivers/CMSIS/Include/cmsis_gcc.h **** /*
   8:Drivers/CMSIS/Include/cmsis_gcc.h ****  * Copyright (c) 2009-2018 Arm Limited. All rights reserved.
   9:Drivers/CMSIS/Include/cmsis_gcc.h ****  *
  10:Drivers/CMSIS/Include/cmsis_gcc.h ****  * SPDX-License-Identifier: Apache-2.0
ARM GAS  /var/folders/8x/_y6g3dfs0698dfd49y4vcg_w0000gn/T//ccFwF41S.s 			page 13


  11:Drivers/CMSIS/Include/cmsis_gcc.h ****  *
  12:Drivers/CMSIS/Include/cmsis_gcc.h ****  * Licensed under the Apache License, Version 2.0 (the License); you may
  13:Drivers/CMSIS/Include/cmsis_gcc.h ****  * not use this file except in compliance with the License.
  14:Drivers/CMSIS/Include/cmsis_gcc.h ****  * You may obtain a copy of the License at
  15:Drivers/CMSIS/Include/cmsis_gcc.h ****  *
  16:Drivers/CMSIS/Include/cmsis_gcc.h ****  * www.apache.org/licenses/LICENSE-2.0
  17:Drivers/CMSIS/Include/cmsis_gcc.h ****  *
  18:Drivers/CMSIS/Include/cmsis_gcc.h ****  * Unless required by applicable law or agreed to in writing, software
  19:Drivers/CMSIS/Include/cmsis_gcc.h ****  * distributed under the License is distributed on an AS IS BASIS, WITHOUT
  20:Drivers/CMSIS/Include/cmsis_gcc.h ****  * WARRANTIES OR CONDITIONS OF ANY KIND, either express or implied.
  21:Drivers/CMSIS/Include/cmsis_gcc.h ****  * See the License for the specific language governing permissions and
  22:Drivers/CMSIS/Include/cmsis_gcc.h ****  * limitations under the License.
  23:Drivers/CMSIS/Include/cmsis_gcc.h ****  */
  24:Drivers/CMSIS/Include/cmsis_gcc.h **** 
  25:Drivers/CMSIS/Include/cmsis_gcc.h **** #ifndef __CMSIS_GCC_H
  26:Drivers/CMSIS/Include/cmsis_gcc.h **** #define __CMSIS_GCC_H
  27:Drivers/CMSIS/Include/cmsis_gcc.h **** 
  28:Drivers/CMSIS/Include/cmsis_gcc.h **** /* ignore some GCC warnings */
  29:Drivers/CMSIS/Include/cmsis_gcc.h **** #pragma GCC diagnostic push
  30:Drivers/CMSIS/Include/cmsis_gcc.h **** #pragma GCC diagnostic ignored "-Wsign-conversion"
  31:Drivers/CMSIS/Include/cmsis_gcc.h **** #pragma GCC diagnostic ignored "-Wconversion"
  32:Drivers/CMSIS/Include/cmsis_gcc.h **** #pragma GCC diagnostic ignored "-Wunused-parameter"
  33:Drivers/CMSIS/Include/cmsis_gcc.h **** 
  34:Drivers/CMSIS/Include/cmsis_gcc.h **** /* Fallback for __has_builtin */
  35:Drivers/CMSIS/Include/cmsis_gcc.h **** #ifndef __has_builtin
  36:Drivers/CMSIS/Include/cmsis_gcc.h ****   #define __has_builtin(x) (0)
  37:Drivers/CMSIS/Include/cmsis_gcc.h **** #endif
  38:Drivers/CMSIS/Include/cmsis_gcc.h **** 
  39:Drivers/CMSIS/Include/cmsis_gcc.h **** /* CMSIS compiler specific defines */
  40:Drivers/CMSIS/Include/cmsis_gcc.h **** #ifndef   __ASM
  41:Drivers/CMSIS/Include/cmsis_gcc.h ****   #define __ASM                                  __asm
  42:Drivers/CMSIS/Include/cmsis_gcc.h **** #endif
  43:Drivers/CMSIS/Include/cmsis_gcc.h **** #ifndef   __INLINE
  44:Drivers/CMSIS/Include/cmsis_gcc.h ****   #define __INLINE                               inline
  45:Drivers/CMSIS/Include/cmsis_gcc.h **** #endif
  46:Drivers/CMSIS/Include/cmsis_gcc.h **** #ifndef   __STATIC_INLINE
  47:Drivers/CMSIS/Include/cmsis_gcc.h ****   #define __STATIC_INLINE                        static inline
  48:Drivers/CMSIS/Include/cmsis_gcc.h **** #endif
  49:Drivers/CMSIS/Include/cmsis_gcc.h **** #ifndef   __STATIC_FORCEINLINE                 
  50:Drivers/CMSIS/Include/cmsis_gcc.h ****   #define __STATIC_FORCEINLINE                   __attribute__((always_inline)) static inline
  51:Drivers/CMSIS/Include/cmsis_gcc.h **** #endif                                           
  52:Drivers/CMSIS/Include/cmsis_gcc.h **** #ifndef   __NO_RETURN
  53:Drivers/CMSIS/Include/cmsis_gcc.h ****   #define __NO_RETURN                            __attribute__((__noreturn__))
  54:Drivers/CMSIS/Include/cmsis_gcc.h **** #endif
  55:Drivers/CMSIS/Include/cmsis_gcc.h **** #ifndef   __USED
  56:Drivers/CMSIS/Include/cmsis_gcc.h ****   #define __USED                                 __attribute__((used))
  57:Drivers/CMSIS/Include/cmsis_gcc.h **** #endif
  58:Drivers/CMSIS/Include/cmsis_gcc.h **** #ifndef   __WEAK
  59:Drivers/CMSIS/Include/cmsis_gcc.h ****   #define __WEAK                                 __attribute__((weak))
  60:Drivers/CMSIS/Include/cmsis_gcc.h **** #endif
  61:Drivers/CMSIS/Include/cmsis_gcc.h **** #ifndef   __PACKED
  62:Drivers/CMSIS/Include/cmsis_gcc.h ****   #define __PACKED                               __attribute__((packed, aligned(1)))
  63:Drivers/CMSIS/Include/cmsis_gcc.h **** #endif
  64:Drivers/CMSIS/Include/cmsis_gcc.h **** #ifndef   __PACKED_STRUCT
  65:Drivers/CMSIS/Include/cmsis_gcc.h ****   #define __PACKED_STRUCT                        struct __attribute__((packed, aligned(1)))
  66:Drivers/CMSIS/Include/cmsis_gcc.h **** #endif
  67:Drivers/CMSIS/Include/cmsis_gcc.h **** #ifndef   __PACKED_UNION
ARM GAS  /var/folders/8x/_y6g3dfs0698dfd49y4vcg_w0000gn/T//ccFwF41S.s 			page 14


  68:Drivers/CMSIS/Include/cmsis_gcc.h ****   #define __PACKED_UNION                         union __attribute__((packed, aligned(1)))
  69:Drivers/CMSIS/Include/cmsis_gcc.h **** #endif
  70:Drivers/CMSIS/Include/cmsis_gcc.h **** #ifndef   __UNALIGNED_UINT32        /* deprecated */
  71:Drivers/CMSIS/Include/cmsis_gcc.h ****   #pragma GCC diagnostic push
  72:Drivers/CMSIS/Include/cmsis_gcc.h ****   #pragma GCC diagnostic ignored "-Wpacked"
  73:Drivers/CMSIS/Include/cmsis_gcc.h ****   #pragma GCC diagnostic ignored "-Wattributes"
  74:Drivers/CMSIS/Include/cmsis_gcc.h ****   struct __attribute__((packed)) T_UINT32 { uint32_t v; };
  75:Drivers/CMSIS/Include/cmsis_gcc.h ****   #pragma GCC diagnostic pop
  76:Drivers/CMSIS/Include/cmsis_gcc.h ****   #define __UNALIGNED_UINT32(x)                  (((struct T_UINT32 *)(x))->v)
  77:Drivers/CMSIS/Include/cmsis_gcc.h **** #endif
  78:Drivers/CMSIS/Include/cmsis_gcc.h **** #ifndef   __UNALIGNED_UINT16_WRITE
  79:Drivers/CMSIS/Include/cmsis_gcc.h ****   #pragma GCC diagnostic push
  80:Drivers/CMSIS/Include/cmsis_gcc.h ****   #pragma GCC diagnostic ignored "-Wpacked"
  81:Drivers/CMSIS/Include/cmsis_gcc.h ****   #pragma GCC diagnostic ignored "-Wattributes"
  82:Drivers/CMSIS/Include/cmsis_gcc.h ****   __PACKED_STRUCT T_UINT16_WRITE { uint16_t v; };
  83:Drivers/CMSIS/Include/cmsis_gcc.h ****   #pragma GCC diagnostic pop
  84:Drivers/CMSIS/Include/cmsis_gcc.h ****   #define __UNALIGNED_UINT16_WRITE(addr, val)    (void)((((struct T_UINT16_WRITE *)(void *)(addr))-
  85:Drivers/CMSIS/Include/cmsis_gcc.h **** #endif
  86:Drivers/CMSIS/Include/cmsis_gcc.h **** #ifndef   __UNALIGNED_UINT16_READ
  87:Drivers/CMSIS/Include/cmsis_gcc.h ****   #pragma GCC diagnostic push
  88:Drivers/CMSIS/Include/cmsis_gcc.h ****   #pragma GCC diagnostic ignored "-Wpacked"
  89:Drivers/CMSIS/Include/cmsis_gcc.h ****   #pragma GCC diagnostic ignored "-Wattributes"
  90:Drivers/CMSIS/Include/cmsis_gcc.h ****   __PACKED_STRUCT T_UINT16_READ { uint16_t v; };
  91:Drivers/CMSIS/Include/cmsis_gcc.h ****   #pragma GCC diagnostic pop
  92:Drivers/CMSIS/Include/cmsis_gcc.h ****   #define __UNALIGNED_UINT16_READ(addr)          (((const struct T_UINT16_READ *)(const void *)(add
  93:Drivers/CMSIS/Include/cmsis_gcc.h **** #endif
  94:Drivers/CMSIS/Include/cmsis_gcc.h **** #ifndef   __UNALIGNED_UINT32_WRITE
  95:Drivers/CMSIS/Include/cmsis_gcc.h ****   #pragma GCC diagnostic push
  96:Drivers/CMSIS/Include/cmsis_gcc.h ****   #pragma GCC diagnostic ignored "-Wpacked"
  97:Drivers/CMSIS/Include/cmsis_gcc.h ****   #pragma GCC diagnostic ignored "-Wattributes"
  98:Drivers/CMSIS/Include/cmsis_gcc.h ****   __PACKED_STRUCT T_UINT32_WRITE { uint32_t v; };
  99:Drivers/CMSIS/Include/cmsis_gcc.h ****   #pragma GCC diagnostic pop
 100:Drivers/CMSIS/Include/cmsis_gcc.h ****   #define __UNALIGNED_UINT32_WRITE(addr, val)    (void)((((struct T_UINT32_WRITE *)(void *)(addr))-
 101:Drivers/CMSIS/Include/cmsis_gcc.h **** #endif
 102:Drivers/CMSIS/Include/cmsis_gcc.h **** #ifndef   __UNALIGNED_UINT32_READ
 103:Drivers/CMSIS/Include/cmsis_gcc.h ****   #pragma GCC diagnostic push
 104:Drivers/CMSIS/Include/cmsis_gcc.h ****   #pragma GCC diagnostic ignored "-Wpacked"
 105:Drivers/CMSIS/Include/cmsis_gcc.h ****   #pragma GCC diagnostic ignored "-Wattributes"
 106:Drivers/CMSIS/Include/cmsis_gcc.h ****   __PACKED_STRUCT T_UINT32_READ { uint32_t v; };
 107:Drivers/CMSIS/Include/cmsis_gcc.h ****   #pragma GCC diagnostic pop
 108:Drivers/CMSIS/Include/cmsis_gcc.h ****   #define __UNALIGNED_UINT32_READ(addr)          (((const struct T_UINT32_READ *)(const void *)(add
 109:Drivers/CMSIS/Include/cmsis_gcc.h **** #endif
 110:Drivers/CMSIS/Include/cmsis_gcc.h **** #ifndef   __ALIGNED
 111:Drivers/CMSIS/Include/cmsis_gcc.h ****   #define __ALIGNED(x)                           __attribute__((aligned(x)))
 112:Drivers/CMSIS/Include/cmsis_gcc.h **** #endif
 113:Drivers/CMSIS/Include/cmsis_gcc.h **** #ifndef   __RESTRICT
 114:Drivers/CMSIS/Include/cmsis_gcc.h ****   #define __RESTRICT                             __restrict
 115:Drivers/CMSIS/Include/cmsis_gcc.h **** #endif
 116:Drivers/CMSIS/Include/cmsis_gcc.h **** 
 117:Drivers/CMSIS/Include/cmsis_gcc.h **** 
 118:Drivers/CMSIS/Include/cmsis_gcc.h **** /* ###########################  Core Function Access  ########################### */
 119:Drivers/CMSIS/Include/cmsis_gcc.h **** /** \ingroup  CMSIS_Core_FunctionInterface
 120:Drivers/CMSIS/Include/cmsis_gcc.h ****     \defgroup CMSIS_Core_RegAccFunctions CMSIS Core Register Access Functions
 121:Drivers/CMSIS/Include/cmsis_gcc.h ****   @{
 122:Drivers/CMSIS/Include/cmsis_gcc.h ****  */
 123:Drivers/CMSIS/Include/cmsis_gcc.h **** 
 124:Drivers/CMSIS/Include/cmsis_gcc.h **** /**
ARM GAS  /var/folders/8x/_y6g3dfs0698dfd49y4vcg_w0000gn/T//ccFwF41S.s 			page 15


 125:Drivers/CMSIS/Include/cmsis_gcc.h ****   \brief   Enable IRQ Interrupts
 126:Drivers/CMSIS/Include/cmsis_gcc.h ****   \details Enables IRQ interrupts by clearing the I-bit in the CPSR.
 127:Drivers/CMSIS/Include/cmsis_gcc.h ****            Can only be executed in Privileged modes.
 128:Drivers/CMSIS/Include/cmsis_gcc.h ****  */
 129:Drivers/CMSIS/Include/cmsis_gcc.h **** __STATIC_FORCEINLINE void __enable_irq(void)
 130:Drivers/CMSIS/Include/cmsis_gcc.h **** {
 131:Drivers/CMSIS/Include/cmsis_gcc.h ****   __ASM volatile ("cpsie i" : : : "memory");
 132:Drivers/CMSIS/Include/cmsis_gcc.h **** }
 133:Drivers/CMSIS/Include/cmsis_gcc.h **** 
 134:Drivers/CMSIS/Include/cmsis_gcc.h **** 
 135:Drivers/CMSIS/Include/cmsis_gcc.h **** /**
 136:Drivers/CMSIS/Include/cmsis_gcc.h ****   \brief   Disable IRQ Interrupts
 137:Drivers/CMSIS/Include/cmsis_gcc.h ****   \details Disables IRQ interrupts by setting the I-bit in the CPSR.
 138:Drivers/CMSIS/Include/cmsis_gcc.h ****            Can only be executed in Privileged modes.
 139:Drivers/CMSIS/Include/cmsis_gcc.h ****  */
 140:Drivers/CMSIS/Include/cmsis_gcc.h **** __STATIC_FORCEINLINE void __disable_irq(void)
 331              		.loc 2 140 27 view .LVU53
 332              	.LBB10:
 141:Drivers/CMSIS/Include/cmsis_gcc.h **** {
 142:Drivers/CMSIS/Include/cmsis_gcc.h ****   __ASM volatile ("cpsid i" : : : "memory");
 333              		.loc 2 142 3 view .LVU54
 334              		.syntax unified
 335              	@ 142 "Drivers/CMSIS/Include/cmsis_gcc.h" 1
 336 0002 72B6     		cpsid i
 337              	@ 0 "" 2
 338              		.thumb
 339              		.syntax unified
 340              	.L24:
 341              	.LBE10:
 342              	.LBE9:
 302:Core/Src/main.c ****   while (1)
 343              		.loc 1 302 3 view .LVU55
 303:Core/Src/main.c ****   {
 304:Core/Src/main.c ****     //printf("bruh");
 305:Core/Src/main.c ****     HAL_GPIO_TogglePin(USER_LED_GPIO_Port, USER_LED_Pin);
 344              		.loc 1 305 5 view .LVU56
 345 0004 0421     		movs	r1, #4
 346 0006 0348     		ldr	r0, .L26
 347 0008 FFF7FEFF 		bl	HAL_GPIO_TogglePin
 348              	.LVL25:
 306:Core/Src/main.c ****     HAL_Delay(200);
 349              		.loc 1 306 5 discriminator 1 view .LVU57
 350 000c C820     		movs	r0, #200
 351 000e FFF7FEFF 		bl	HAL_Delay
 352              	.LVL26:
 302:Core/Src/main.c ****   while (1)
 353              		.loc 1 302 9 view .LVU58
 354 0012 F7E7     		b	.L24
 355              	.L27:
 356              		.align	2
 357              	.L26:
 358 0014 00080140 		.word	1073809408
 359              		.cfi_endproc
 360              	.LFE71:
 362              		.section	.text.SystemClock_Config,"ax",%progbits
 363              		.align	1
 364              		.global	SystemClock_Config
ARM GAS  /var/folders/8x/_y6g3dfs0698dfd49y4vcg_w0000gn/T//ccFwF41S.s 			page 16


 365              		.syntax unified
 366              		.thumb
 367              		.thumb_func
 369              	SystemClock_Config:
 370              	.LFB66:
 187:Core/Src/main.c ****   RCC_OscInitTypeDef RCC_OscInitStruct = {0};
 371              		.loc 1 187 1 view -0
 372              		.cfi_startproc
 373              		@ args = 0, pretend = 0, frame = 80
 374              		@ frame_needed = 0, uses_anonymous_args = 0
 375 0000 00B5     		push	{lr}
 376              	.LCFI7:
 377              		.cfi_def_cfa_offset 4
 378              		.cfi_offset 14, -4
 379 0002 95B0     		sub	sp, sp, #84
 380              	.LCFI8:
 381              		.cfi_def_cfa_offset 88
 188:Core/Src/main.c ****   RCC_ClkInitTypeDef RCC_ClkInitStruct = {0};
 382              		.loc 1 188 3 view .LVU60
 188:Core/Src/main.c ****   RCC_ClkInitTypeDef RCC_ClkInitStruct = {0};
 383              		.loc 1 188 22 is_stmt 0 view .LVU61
 384 0004 2822     		movs	r2, #40
 385 0006 0021     		movs	r1, #0
 386 0008 0DEB0200 		add	r0, sp, r2
 387 000c FFF7FEFF 		bl	memset
 388              	.LVL27:
 189:Core/Src/main.c ****   RCC_PeriphCLKInitTypeDef PeriphClkInit = {0};
 389              		.loc 1 189 3 is_stmt 1 view .LVU62
 189:Core/Src/main.c ****   RCC_PeriphCLKInitTypeDef PeriphClkInit = {0};
 390              		.loc 1 189 22 is_stmt 0 view .LVU63
 391 0010 0023     		movs	r3, #0
 392 0012 0593     		str	r3, [sp, #20]
 393 0014 0693     		str	r3, [sp, #24]
 394 0016 0793     		str	r3, [sp, #28]
 395 0018 0893     		str	r3, [sp, #32]
 396 001a 0993     		str	r3, [sp, #36]
 190:Core/Src/main.c **** 
 397              		.loc 1 190 3 is_stmt 1 view .LVU64
 190:Core/Src/main.c **** 
 398              		.loc 1 190 28 is_stmt 0 view .LVU65
 399 001c 0193     		str	r3, [sp, #4]
 400 001e 0293     		str	r3, [sp, #8]
 401 0020 0393     		str	r3, [sp, #12]
 402 0022 0493     		str	r3, [sp, #16]
 195:Core/Src/main.c ****   RCC_OscInitStruct.HSEState = RCC_HSE_ON;
 403              		.loc 1 195 3 is_stmt 1 view .LVU66
 195:Core/Src/main.c ****   RCC_OscInitStruct.HSEState = RCC_HSE_ON;
 404              		.loc 1 195 36 is_stmt 0 view .LVU67
 405 0024 0122     		movs	r2, #1
 406 0026 0A92     		str	r2, [sp, #40]
 196:Core/Src/main.c ****   RCC_OscInitStruct.HSEPredivValue = RCC_HSE_PREDIV_DIV2;
 407              		.loc 1 196 3 is_stmt 1 view .LVU68
 196:Core/Src/main.c ****   RCC_OscInitStruct.HSEPredivValue = RCC_HSE_PREDIV_DIV2;
 408              		.loc 1 196 30 is_stmt 0 view .LVU69
 409 0028 4FF48033 		mov	r3, #65536
 410 002c 0B93     		str	r3, [sp, #44]
 197:Core/Src/main.c ****   RCC_OscInitStruct.HSIState = RCC_HSI_ON;
ARM GAS  /var/folders/8x/_y6g3dfs0698dfd49y4vcg_w0000gn/T//ccFwF41S.s 			page 17


 411              		.loc 1 197 3 is_stmt 1 view .LVU70
 197:Core/Src/main.c ****   RCC_OscInitStruct.HSIState = RCC_HSI_ON;
 412              		.loc 1 197 36 is_stmt 0 view .LVU71
 413 002e 4FF40031 		mov	r1, #131072
 414 0032 0C91     		str	r1, [sp, #48]
 198:Core/Src/main.c ****   RCC_OscInitStruct.PLL.PLLState = RCC_PLL_ON;
 415              		.loc 1 198 3 is_stmt 1 view .LVU72
 198:Core/Src/main.c ****   RCC_OscInitStruct.PLL.PLLState = RCC_PLL_ON;
 416              		.loc 1 198 30 is_stmt 0 view .LVU73
 417 0034 0E92     		str	r2, [sp, #56]
 199:Core/Src/main.c ****   RCC_OscInitStruct.PLL.PLLSource = RCC_PLLSOURCE_HSE;
 418              		.loc 1 199 3 is_stmt 1 view .LVU74
 199:Core/Src/main.c ****   RCC_OscInitStruct.PLL.PLLSource = RCC_PLLSOURCE_HSE;
 419              		.loc 1 199 34 is_stmt 0 view .LVU75
 420 0036 0222     		movs	r2, #2
 421 0038 1192     		str	r2, [sp, #68]
 200:Core/Src/main.c ****   RCC_OscInitStruct.PLL.PLLMUL = RCC_PLL_MUL9;
 422              		.loc 1 200 3 is_stmt 1 view .LVU76
 200:Core/Src/main.c ****   RCC_OscInitStruct.PLL.PLLMUL = RCC_PLL_MUL9;
 423              		.loc 1 200 35 is_stmt 0 view .LVU77
 424 003a 1293     		str	r3, [sp, #72]
 201:Core/Src/main.c ****   if (HAL_RCC_OscConfig(&RCC_OscInitStruct) != HAL_OK)
 425              		.loc 1 201 3 is_stmt 1 view .LVU78
 201:Core/Src/main.c ****   if (HAL_RCC_OscConfig(&RCC_OscInitStruct) != HAL_OK)
 426              		.loc 1 201 32 is_stmt 0 view .LVU79
 427 003c 4FF4E013 		mov	r3, #1835008
 428 0040 1393     		str	r3, [sp, #76]
 202:Core/Src/main.c ****   {
 429              		.loc 1 202 3 is_stmt 1 view .LVU80
 202:Core/Src/main.c ****   {
 430              		.loc 1 202 7 is_stmt 0 view .LVU81
 431 0042 0AA8     		add	r0, sp, #40
 432 0044 FFF7FEFF 		bl	HAL_RCC_OscConfig
 433              	.LVL28:
 202:Core/Src/main.c ****   {
 434              		.loc 1 202 6 discriminator 1 view .LVU82
 435 0048 C0B9     		cbnz	r0, .L33
 209:Core/Src/main.c ****                               |RCC_CLOCKTYPE_PCLK1|RCC_CLOCKTYPE_PCLK2;
 436              		.loc 1 209 3 is_stmt 1 view .LVU83
 209:Core/Src/main.c ****                               |RCC_CLOCKTYPE_PCLK1|RCC_CLOCKTYPE_PCLK2;
 437              		.loc 1 209 31 is_stmt 0 view .LVU84
 438 004a 0F23     		movs	r3, #15
 439 004c 0593     		str	r3, [sp, #20]
 211:Core/Src/main.c ****   RCC_ClkInitStruct.AHBCLKDivider = RCC_SYSCLK_DIV1;
 440              		.loc 1 211 3 is_stmt 1 view .LVU85
 211:Core/Src/main.c ****   RCC_ClkInitStruct.AHBCLKDivider = RCC_SYSCLK_DIV1;
 441              		.loc 1 211 34 is_stmt 0 view .LVU86
 442 004e 0221     		movs	r1, #2
 443 0050 0691     		str	r1, [sp, #24]
 212:Core/Src/main.c ****   RCC_ClkInitStruct.APB1CLKDivider = RCC_HCLK_DIV2;
 444              		.loc 1 212 3 is_stmt 1 view .LVU87
 212:Core/Src/main.c ****   RCC_ClkInitStruct.APB1CLKDivider = RCC_HCLK_DIV2;
 445              		.loc 1 212 35 is_stmt 0 view .LVU88
 446 0052 0023     		movs	r3, #0
 447 0054 0793     		str	r3, [sp, #28]
 213:Core/Src/main.c ****   RCC_ClkInitStruct.APB2CLKDivider = RCC_HCLK_DIV1;
 448              		.loc 1 213 3 is_stmt 1 view .LVU89
ARM GAS  /var/folders/8x/_y6g3dfs0698dfd49y4vcg_w0000gn/T//ccFwF41S.s 			page 18


 213:Core/Src/main.c ****   RCC_ClkInitStruct.APB2CLKDivider = RCC_HCLK_DIV1;
 449              		.loc 1 213 36 is_stmt 0 view .LVU90
 450 0056 4FF48062 		mov	r2, #1024
 451 005a 0892     		str	r2, [sp, #32]
 214:Core/Src/main.c **** 
 452              		.loc 1 214 3 is_stmt 1 view .LVU91
 214:Core/Src/main.c **** 
 453              		.loc 1 214 36 is_stmt 0 view .LVU92
 454 005c 0993     		str	r3, [sp, #36]
 216:Core/Src/main.c ****   {
 455              		.loc 1 216 3 is_stmt 1 view .LVU93
 216:Core/Src/main.c ****   {
 456              		.loc 1 216 7 is_stmt 0 view .LVU94
 457 005e 05A8     		add	r0, sp, #20
 458 0060 FFF7FEFF 		bl	HAL_RCC_ClockConfig
 459              	.LVL29:
 216:Core/Src/main.c ****   {
 460              		.loc 1 216 6 discriminator 1 view .LVU95
 461 0064 60B9     		cbnz	r0, .L34
 220:Core/Src/main.c ****   PeriphClkInit.UsbClockSelection = RCC_USBCLKSOURCE_PLL_DIV1_5;
 462              		.loc 1 220 3 is_stmt 1 view .LVU96
 220:Core/Src/main.c ****   PeriphClkInit.UsbClockSelection = RCC_USBCLKSOURCE_PLL_DIV1_5;
 463              		.loc 1 220 38 is_stmt 0 view .LVU97
 464 0066 1023     		movs	r3, #16
 465 0068 0193     		str	r3, [sp, #4]
 221:Core/Src/main.c ****   if (HAL_RCCEx_PeriphCLKConfig(&PeriphClkInit) != HAL_OK)
 466              		.loc 1 221 3 is_stmt 1 view .LVU98
 221:Core/Src/main.c ****   if (HAL_RCCEx_PeriphCLKConfig(&PeriphClkInit) != HAL_OK)
 467              		.loc 1 221 35 is_stmt 0 view .LVU99
 468 006a 0023     		movs	r3, #0
 469 006c 0493     		str	r3, [sp, #16]
 222:Core/Src/main.c ****   {
 470              		.loc 1 222 3 is_stmt 1 view .LVU100
 222:Core/Src/main.c ****   {
 471              		.loc 1 222 7 is_stmt 0 view .LVU101
 472 006e 01A8     		add	r0, sp, #4
 473 0070 FFF7FEFF 		bl	HAL_RCCEx_PeriphCLKConfig
 474              	.LVL30:
 222:Core/Src/main.c ****   {
 475              		.loc 1 222 6 discriminator 1 view .LVU102
 476 0074 30B9     		cbnz	r0, .L35
 226:Core/Src/main.c **** 
 477              		.loc 1 226 1 view .LVU103
 478 0076 15B0     		add	sp, sp, #84
 479              	.LCFI9:
 480              		.cfi_remember_state
 481              		.cfi_def_cfa_offset 4
 482              		@ sp needed
 483 0078 5DF804FB 		ldr	pc, [sp], #4
 484              	.L33:
 485              	.LCFI10:
 486              		.cfi_restore_state
 204:Core/Src/main.c ****   }
 487              		.loc 1 204 5 is_stmt 1 view .LVU104
 488 007c FFF7FEFF 		bl	Error_Handler
 489              	.LVL31:
 490              	.L34:
ARM GAS  /var/folders/8x/_y6g3dfs0698dfd49y4vcg_w0000gn/T//ccFwF41S.s 			page 19


 218:Core/Src/main.c ****   }
 491              		.loc 1 218 5 view .LVU105
 492 0080 FFF7FEFF 		bl	Error_Handler
 493              	.LVL32:
 494              	.L35:
 224:Core/Src/main.c ****   }
 495              		.loc 1 224 5 view .LVU106
 496 0084 FFF7FEFF 		bl	Error_Handler
 497              	.LVL33:
 498              		.cfi_endproc
 499              	.LFE66:
 501              		.section	.text.main,"ax",%progbits
 502              		.align	1
 503              		.global	main
 504              		.syntax unified
 505              		.thumb
 506              		.thumb_func
 508              	main:
 509              	.LFB65:
  87:Core/Src/main.c **** 
 510              		.loc 1 87 1 view -0
 511              		.cfi_startproc
 512              		@ Volatile: function does not return.
 513              		@ args = 0, pretend = 0, frame = 0
 514              		@ frame_needed = 0, uses_anonymous_args = 0
 515 0000 08B5     		push	{r3, lr}
 516              	.LCFI11:
 517              		.cfi_def_cfa_offset 8
 518              		.cfi_offset 3, -8
 519              		.cfi_offset 14, -4
  96:Core/Src/main.c **** 
 520              		.loc 1 96 3 view .LVU108
 521 0002 FFF7FEFF 		bl	HAL_Init
 522              	.LVL34:
 103:Core/Src/main.c **** 
 523              		.loc 1 103 3 view .LVU109
 524 0006 FFF7FEFF 		bl	SystemClock_Config
 525              	.LVL35:
 110:Core/Src/main.c ****   MX_CAN_Init();
 526              		.loc 1 110 3 view .LVU110
 527 000a FFF7FEFF 		bl	MX_GPIO_Init
 528              	.LVL36:
 111:Core/Src/main.c ****   MX_I2C1_Init();
 529              		.loc 1 111 3 view .LVU111
 530 000e FFF7FEFF 		bl	MX_CAN_Init
 531              	.LVL37:
 112:Core/Src/main.c ****   MX_USART1_UART_Init();
 532              		.loc 1 112 3 view .LVU112
 533 0012 FFF7FEFF 		bl	MX_I2C1_Init
 534              	.LVL38:
 113:Core/Src/main.c ****   MX_USB_PCD_Init();
 535              		.loc 1 113 3 view .LVU113
 536 0016 FFF7FEFF 		bl	MX_USART1_UART_Init
 537              	.LVL39:
 114:Core/Src/main.c ****   /* USER CODE BEGIN 2 */
 538              		.loc 1 114 3 view .LVU114
 539 001a FFF7FEFF 		bl	MX_USB_PCD_Init
ARM GAS  /var/folders/8x/_y6g3dfs0698dfd49y4vcg_w0000gn/T//ccFwF41S.s 			page 20


 540              	.LVL40:
 117:Core/Src/main.c **** 
 541              		.loc 1 117 3 view .LVU115
 120:Core/Src/main.c ****   canfil.FilterMode = CAN_FILTERMODE_IDMASK;
 542              		.loc 1 120 3 view .LVU116
 120:Core/Src/main.c ****   canfil.FilterMode = CAN_FILTERMODE_IDMASK;
 543              		.loc 1 120 21 is_stmt 0 view .LVU117
 544 001e 1C49     		ldr	r1, .L40
 545 0020 0023     		movs	r3, #0
 546 0022 4B61     		str	r3, [r1, #20]
 121:Core/Src/main.c ****   canfil.FilterFIFOAssignment = CAN_RX_FIFO0;
 547              		.loc 1 121 3 is_stmt 1 view .LVU118
 121:Core/Src/main.c ****   canfil.FilterFIFOAssignment = CAN_RX_FIFO0;
 548              		.loc 1 121 21 is_stmt 0 view .LVU119
 549 0024 8B61     		str	r3, [r1, #24]
 122:Core/Src/main.c ****   canfil.FilterIdHigh = 0;
 550              		.loc 1 122 3 is_stmt 1 view .LVU120
 122:Core/Src/main.c ****   canfil.FilterIdHigh = 0;
 551              		.loc 1 122 31 is_stmt 0 view .LVU121
 552 0026 0B61     		str	r3, [r1, #16]
 123:Core/Src/main.c ****   canfil.FilterIdLow = 0;
 553              		.loc 1 123 3 is_stmt 1 view .LVU122
 123:Core/Src/main.c ****   canfil.FilterIdLow = 0;
 554              		.loc 1 123 23 is_stmt 0 view .LVU123
 555 0028 0B60     		str	r3, [r1]
 124:Core/Src/main.c ****   canfil.FilterMaskIdHigh = 0;
 556              		.loc 1 124 3 is_stmt 1 view .LVU124
 124:Core/Src/main.c ****   canfil.FilterMaskIdHigh = 0;
 557              		.loc 1 124 22 is_stmt 0 view .LVU125
 558 002a 4B60     		str	r3, [r1, #4]
 125:Core/Src/main.c ****   canfil.FilterMaskIdLow = 0;
 559              		.loc 1 125 3 is_stmt 1 view .LVU126
 125:Core/Src/main.c ****   canfil.FilterMaskIdLow = 0;
 560              		.loc 1 125 27 is_stmt 0 view .LVU127
 561 002c 8B60     		str	r3, [r1, #8]
 126:Core/Src/main.c ****   canfil.FilterScale = CAN_FILTERSCALE_32BIT;
 562              		.loc 1 126 3 is_stmt 1 view .LVU128
 126:Core/Src/main.c ****   canfil.FilterScale = CAN_FILTERSCALE_32BIT;
 563              		.loc 1 126 26 is_stmt 0 view .LVU129
 564 002e CB60     		str	r3, [r1, #12]
 127:Core/Src/main.c ****   canfil.FilterActivation = ENABLE;
 565              		.loc 1 127 3 is_stmt 1 view .LVU130
 127:Core/Src/main.c ****   canfil.FilterActivation = ENABLE;
 566              		.loc 1 127 22 is_stmt 0 view .LVU131
 567 0030 0120     		movs	r0, #1
 568 0032 C861     		str	r0, [r1, #28]
 128:Core/Src/main.c ****   canfil.SlaveStartFilterBank = 14;
 569              		.loc 1 128 3 is_stmt 1 view .LVU132
 128:Core/Src/main.c ****   canfil.SlaveStartFilterBank = 14;
 570              		.loc 1 128 27 is_stmt 0 view .LVU133
 571 0034 0862     		str	r0, [r1, #32]
 129:Core/Src/main.c **** 
 572              		.loc 1 129 3 is_stmt 1 view .LVU134
 129:Core/Src/main.c **** 
 573              		.loc 1 129 31 is_stmt 0 view .LVU135
 574 0036 0E22     		movs	r2, #14
 575 0038 4A62     		str	r2, [r1, #36]
ARM GAS  /var/folders/8x/_y6g3dfs0698dfd49y4vcg_w0000gn/T//ccFwF41S.s 			page 21


 131:Core/Src/main.c ****   TxHeader.StdId = 0x446;
 576              		.loc 1 131 3 is_stmt 1 view .LVU136
 131:Core/Src/main.c ****   TxHeader.StdId = 0x446;
 577              		.loc 1 131 16 is_stmt 0 view .LVU137
 578 003a 164A     		ldr	r2, .L40+4
 579 003c 9360     		str	r3, [r2, #8]
 132:Core/Src/main.c ****   TxHeader.RTR = CAN_RTR_DATA;
 580              		.loc 1 132 3 is_stmt 1 view .LVU138
 132:Core/Src/main.c ****   TxHeader.RTR = CAN_RTR_DATA;
 581              		.loc 1 132 18 is_stmt 0 view .LVU139
 582 003e 40F24644 		movw	r4, #1094
 583 0042 1460     		str	r4, [r2]
 133:Core/Src/main.c ****   TxHeader.DLC = 8;
 584              		.loc 1 133 3 is_stmt 1 view .LVU140
 133:Core/Src/main.c ****   TxHeader.DLC = 8;
 585              		.loc 1 133 16 is_stmt 0 view .LVU141
 586 0044 D360     		str	r3, [r2, #12]
 134:Core/Src/main.c **** 
 587              		.loc 1 134 3 is_stmt 1 view .LVU142
 134:Core/Src/main.c **** 
 588              		.loc 1 134 16 is_stmt 0 view .LVU143
 589 0046 0824     		movs	r4, #8
 590 0048 1461     		str	r4, [r2, #16]
 136:Core/Src/main.c ****   TxData[1] = 0x02; 
 591              		.loc 1 136 3 is_stmt 1 view .LVU144
 136:Core/Src/main.c ****   TxData[1] = 0x02; 
 592              		.loc 1 136 13 is_stmt 0 view .LVU145
 593 004a 134B     		ldr	r3, .L40+8
 594 004c 1870     		strb	r0, [r3]
 137:Core/Src/main.c ****   TxData[2] = 0x03; 
 595              		.loc 1 137 3 is_stmt 1 view .LVU146
 137:Core/Src/main.c ****   TxData[2] = 0x03; 
 596              		.loc 1 137 13 is_stmt 0 view .LVU147
 597 004e 0225     		movs	r5, #2
 598 0050 5D70     		strb	r5, [r3, #1]
 138:Core/Src/main.c ****   TxData[3] = 0x04; 
 599              		.loc 1 138 3 is_stmt 1 view .LVU148
 138:Core/Src/main.c ****   TxData[3] = 0x04; 
 600              		.loc 1 138 13 is_stmt 0 view .LVU149
 601 0052 0322     		movs	r2, #3
 602 0054 9A70     		strb	r2, [r3, #2]
 139:Core/Src/main.c ****   TxData[4] = 0x05; 
 603              		.loc 1 139 3 is_stmt 1 view .LVU150
 139:Core/Src/main.c ****   TxData[4] = 0x05; 
 604              		.loc 1 139 13 is_stmt 0 view .LVU151
 605 0056 0422     		movs	r2, #4
 606 0058 DA70     		strb	r2, [r3, #3]
 140:Core/Src/main.c ****   TxData[5] = 0x06; 
 607              		.loc 1 140 3 is_stmt 1 view .LVU152
 140:Core/Src/main.c ****   TxData[5] = 0x06; 
 608              		.loc 1 140 13 is_stmt 0 view .LVU153
 609 005a 0522     		movs	r2, #5
 610 005c 1A71     		strb	r2, [r3, #4]
 141:Core/Src/main.c ****   TxData[6] = 0x07; 
 611              		.loc 1 141 3 is_stmt 1 view .LVU154
 141:Core/Src/main.c ****   TxData[6] = 0x07; 
 612              		.loc 1 141 13 is_stmt 0 view .LVU155
ARM GAS  /var/folders/8x/_y6g3dfs0698dfd49y4vcg_w0000gn/T//ccFwF41S.s 			page 22


 613 005e 0622     		movs	r2, #6
 614 0060 5A71     		strb	r2, [r3, #5]
 142:Core/Src/main.c ****   TxData[7] = 0x08; 
 615              		.loc 1 142 3 is_stmt 1 view .LVU156
 142:Core/Src/main.c ****   TxData[7] = 0x08; 
 616              		.loc 1 142 13 is_stmt 0 view .LVU157
 617 0062 0722     		movs	r2, #7
 618 0064 9A71     		strb	r2, [r3, #6]
 143:Core/Src/main.c **** 
 619              		.loc 1 143 3 is_stmt 1 view .LVU158
 143:Core/Src/main.c **** 
 620              		.loc 1 143 13 is_stmt 0 view .LVU159
 621 0066 DC71     		strb	r4, [r3, #7]
 147:Core/Src/main.c ****   HAL_CAN_Start(&hcan);
 622              		.loc 1 147 3 is_stmt 1 view .LVU160
 623 0068 0C4C     		ldr	r4, .L40+12
 624 006a 2046     		mov	r0, r4
 625 006c FFF7FEFF 		bl	HAL_CAN_ConfigFilter
 626              	.LVL41:
 148:Core/Src/main.c ****   HAL_CAN_ActivateNotification(&hcan,CAN_IT_RX_FIFO0_MSG_PENDING);
 627              		.loc 1 148 3 view .LVU161
 628 0070 2046     		mov	r0, r4
 629 0072 FFF7FEFF 		bl	HAL_CAN_Start
 630              	.LVL42:
 149:Core/Src/main.c **** 
 631              		.loc 1 149 3 view .LVU162
 632 0076 2946     		mov	r1, r5
 633 0078 2046     		mov	r0, r4
 634 007a FFF7FEFF 		bl	HAL_CAN_ActivateNotification
 635              	.LVL43:
 151:Core/Src/main.c ****   {
 636              		.loc 1 151 3 view .LVU163
 151:Core/Src/main.c ****   {
 637              		.loc 1 151 7 is_stmt 0 view .LVU164
 638 007e 2946     		mov	r1, r5
 639 0080 2046     		mov	r0, r4
 640 0082 FFF7FEFF 		bl	HAL_CAN_ActivateNotification
 641              	.LVL44:
 151:Core/Src/main.c ****   {
 642              		.loc 1 151 6 discriminator 1 view .LVU165
 643 0086 00B9     		cbnz	r0, .L39
 644              	.L37:
 160:Core/Src/main.c ****   {
 645              		.loc 1 160 3 is_stmt 1 view .LVU166
 178:Core/Src/main.c ****   /* USER CODE END 3 */
 646              		.loc 1 178 3 view .LVU167
 160:Core/Src/main.c ****   {
 647              		.loc 1 160 9 view .LVU168
 648 0088 FEE7     		b	.L37
 649              	.L39:
 153:Core/Src/main.c ****   }
 650              		.loc 1 153 4 view .LVU169
 651 008a FFF7FEFF 		bl	Error_Handler
 652              	.LVL45:
 653              	.L41:
 654 008e 00BF     		.align	2
 655              	.L40:
ARM GAS  /var/folders/8x/_y6g3dfs0698dfd49y4vcg_w0000gn/T//ccFwF41S.s 			page 23


 656 0090 00000000 		.word	canfil
 657 0094 00000000 		.word	TxHeader
 658 0098 00000000 		.word	TxData
 659 009c 00000000 		.word	hcan
 660              		.cfi_endproc
 661              	.LFE65:
 663              		.global	canRX
 664              		.section	.bss.canRX,"aw",%nobits
 665              		.align	2
 668              	canRX:
 669 0000 00000000 		.space	8
 669      00000000 
 670              		.global	canMailbox
 671              		.section	.bss.canMailbox,"aw",%nobits
 672              		.align	2
 675              	canMailbox:
 676 0000 00000000 		.space	4
 677              		.global	canfil
 678              		.section	.bss.canfil,"aw",%nobits
 679              		.align	2
 682              	canfil:
 683 0000 00000000 		.space	40
 683      00000000 
 683      00000000 
 683      00000000 
 683      00000000 
 684              		.global	TxMailbox
 685              		.section	.bss.TxMailbox,"aw",%nobits
 686              		.align	2
 689              	TxMailbox:
 690 0000 00000000 		.space	4
 691              		.global	TxData
 692              		.section	.bss.TxData,"aw",%nobits
 693              		.align	2
 696              	TxData:
 697 0000 00000000 		.space	8
 697      00000000 
 698              		.global	RxHeader
 699              		.section	.bss.RxHeader,"aw",%nobits
 700              		.align	2
 703              	RxHeader:
 704 0000 00000000 		.space	28
 704      00000000 
 704      00000000 
 704      00000000 
 704      00000000 
 705              		.global	TxHeader
 706              		.section	.bss.TxHeader,"aw",%nobits
 707              		.align	2
 710              	TxHeader:
 711 0000 00000000 		.space	24
 711      00000000 
 711      00000000 
 711      00000000 
 711      00000000 
 712              		.text
 713              	.Letext0:
ARM GAS  /var/folders/8x/_y6g3dfs0698dfd49y4vcg_w0000gn/T//ccFwF41S.s 			page 24


 714              		.file 3 "/Applications/ArmGNUToolchain/13.3.rel1/arm-none-eabi/arm-none-eabi/include/machine/_defa
 715              		.file 4 "/Applications/ArmGNUToolchain/13.3.rel1/arm-none-eabi/arm-none-eabi/include/sys/_stdint.h
 716              		.file 5 "Drivers/CMSIS/Device/ST/STM32F1xx/Include/stm32f103xb.h"
 717              		.file 6 "Drivers/CMSIS/Device/ST/STM32F1xx/Include/stm32f1xx.h"
 718              		.file 7 "Drivers/STM32F1xx_HAL_Driver/Inc/stm32f1xx_hal_def.h"
 719              		.file 8 "Drivers/STM32F1xx_HAL_Driver/Inc/stm32f1xx_hal_rcc.h"
 720              		.file 9 "Drivers/STM32F1xx_HAL_Driver/Inc/stm32f1xx_hal_rcc_ex.h"
 721              		.file 10 "Drivers/STM32F1xx_HAL_Driver/Inc/stm32f1xx_hal_dma.h"
 722              		.file 11 "Drivers/STM32F1xx_HAL_Driver/Inc/stm32f1xx_hal_can.h"
 723              		.file 12 "Drivers/STM32F1xx_HAL_Driver/Inc/stm32f1xx_hal_uart.h"
 724              		.file 13 "Core/Inc/can.h"
 725              		.file 14 "Core/Inc/usart.h"
 726              		.file 15 "Drivers/STM32F1xx_HAL_Driver/Inc/stm32f1xx_hal.h"
 727              		.file 16 "Drivers/STM32F1xx_HAL_Driver/Inc/stm32f1xx_hal_gpio.h"
 728              		.file 17 "Core/Inc/usb.h"
 729              		.file 18 "Core/Inc/i2c.h"
 730              		.file 19 "Core/Inc/gpio.h"
 731              		.file 20 "<built-in>"
ARM GAS  /var/folders/8x/_y6g3dfs0698dfd49y4vcg_w0000gn/T//ccFwF41S.s 			page 25

